
bin\Release\glcd_ex01.elf:     file format elf32-avr

Sections:
Idx Name          Size      VMA       LMA       File off  Algn
  0 .text         000017f2  00000000  00000000  00000094  2**1
                  CONTENTS, ALLOC, LOAD, READONLY, CODE
  1 .bss          00000009  00800060  00800060  00001886  2**0
                  ALLOC
  2 .fuse         00000002  00820000  00820000  00001886  2**0
                  CONTENTS, ALLOC, LOAD, DATA

Disassembly of section .text:

00000000 <__vectors>:
       0:	0c 94 1d 05 	jmp	0xa3a	; 0xa3a <__ctors_end>
       4:	0c 94 2f 05 	jmp	0xa5e	; 0xa5e <__bad_interrupt>
       8:	0c 94 2f 05 	jmp	0xa5e	; 0xa5e <__bad_interrupt>
       c:	0c 94 2f 05 	jmp	0xa5e	; 0xa5e <__bad_interrupt>
      10:	0c 94 2f 05 	jmp	0xa5e	; 0xa5e <__bad_interrupt>
      14:	0c 94 2f 05 	jmp	0xa5e	; 0xa5e <__bad_interrupt>
      18:	0c 94 2f 05 	jmp	0xa5e	; 0xa5e <__bad_interrupt>
      1c:	0c 94 2f 05 	jmp	0xa5e	; 0xa5e <__bad_interrupt>
      20:	0c 94 2f 05 	jmp	0xa5e	; 0xa5e <__bad_interrupt>
      24:	0c 94 2f 05 	jmp	0xa5e	; 0xa5e <__bad_interrupt>
      28:	0c 94 2f 05 	jmp	0xa5e	; 0xa5e <__bad_interrupt>
      2c:	0c 94 2f 05 	jmp	0xa5e	; 0xa5e <__bad_interrupt>
      30:	0c 94 2f 05 	jmp	0xa5e	; 0xa5e <__bad_interrupt>
      34:	0c 94 2f 05 	jmp	0xa5e	; 0xa5e <__bad_interrupt>
      38:	0c 94 2f 05 	jmp	0xa5e	; 0xa5e <__bad_interrupt>
      3c:	0c 94 2f 05 	jmp	0xa5e	; 0xa5e <__bad_interrupt>
      40:	0c 94 2f 05 	jmp	0xa5e	; 0xa5e <__bad_interrupt>
      44:	0c 94 2f 05 	jmp	0xa5e	; 0xa5e <__bad_interrupt>
      48:	0c 94 2f 05 	jmp	0xa5e	; 0xa5e <__bad_interrupt>
      4c:	0c 94 2f 05 	jmp	0xa5e	; 0xa5e <__bad_interrupt>
      50:	0c 94 2f 05 	jmp	0xa5e	; 0xa5e <__bad_interrupt>

00000054 <Arial_Bold_14>:
      54:	22 08 0a 0e 20 60 04 02 05 06 07 08 09 02 03 03     "... `..........
      64:	05 08 02 04 02 04 07 04 07 07 07 07 07 07 07 07     ................
      74:	02 02 07 07 07 08 0e 09 08 08 08 07 07 09 08 02     ................
      84:	07 08 07 0b 08 09 07 09 09 07 08 08 09 0d 07 08     ................
      94:	08 04 04 04 06 08 03 07 07 06 07 07 05 07 07 02     ................
      a4:	03 06 02 0a 07 07 07 07 05 06 05 07 07 0b 06 07     ................
      b4:	05 05 01 05 07 08 00 00 00 00 00 00 00 00 fe fe     ................
      c4:	18 18 1e 1e 00 1e 1e 00 00 00 00 00 90 f8 9e 90     ................
      d4:	f8 9e 1c 00 00 1c 00 00 18 3c 26 ff 66 cc 88 04     .........<&.f...
      e4:	0c 18 3c 18 0c 04 1c 22 1c c0 30 8e 40 80 00 00     ..<...."..0.@...
      f4:	18 04 00 0c 10 0c 80 cc 7e 72 f2 de 0c 80 00 0c     ........~r......
     104:	1c 10 10 10 1c 0c 1c 10 1e 1e 00 00 f0 fc 06 1c     ................
     114:	7c c0 06 fc f0 c0 7c 1c 14 14 0e 14 14 00 00 00     |.....|.........
     124:	00 00 60 60 60 fc fc 60 60 60 00 00 00 0c 0c 00     ..```..```......
     134:	00 00 00 00 58 38 c0 c0 c0 c0 00 00 00 00 00 00     ....X8..........
     144:	18 18 00 c0 38 06 18 04 00 00 f8 fc 0e 06 0e fc     ....8...........
     154:	f8 04 0c 1c 18 1c 0c 04 18 0c fe fe 00 00 1c 1c     ................
     164:	18 1c 86 c6 66 3e 1c 18 1c 1c 18 18 18 18 88 8c     ....f>..........
     174:	06 26 26 fe dc 04 0c 1c 18 18 0c 04 c0 e0 b8 8c     .&&.............
     184:	fe fe 80 04 04 04 04 1c 1c 04 70 7e 3e 36 36 f6     ..........p~>66.
     194:	c6 0c 1c 18 18 18 0c 04 f8 fc 6e 66 66 ee cc 04     ..........nff...
     1a4:	0c 18 18 18 1c 0c 06 06 06 e6 76 1e 06 00 00 1c     ..........v.....
     1b4:	1c 00 00 00 9c fe 66 66 66 fe 9c 0c 1c 18 18 18     ......fff.......
     1c4:	1c 0c 3c 7e 66 66 66 fc f8 0c 1c 18 18 1c 0c 04     ..<~fff.........
     1d4:	18 18 18 18 18 18 58 38 60 60 f0 f0 98 98 0c 00     ......X8``......
     1e4:	00 00 00 04 04 0c d8 d8 d8 d8 d8 d8 d8 00 00 00     ................
     1f4:	00 00 00 00 0c 98 98 f0 f0 60 60 0c 04 04 00 00     .........``.....
     204:	00 00 08 0c 06 c6 e6 76 3c 18 00 00 00 18 18 00     .......v<.......
     214:	00 00 e0 30 08 c4 f6 3a 1a 1a f2 fa 7e 04 08 f0     ...0...:....~...
     224:	0c 30 60 4c 9c 98 98 8c 9c 9c 90 48 4c 20 00 c0     .0`L.......HL ..
     234:	f8 be 86 be f8 c0 00 18 1c 04 04 04 04 04 1c 18     ................
     244:	fe fe 66 66 66 66 fe dc 1c 1c 18 18 18 18 1c 0c     ..ffff..........
     254:	f8 fc 0e 06 06 0e 9c 08 04 0c 1c 18 18 1c 0c 04     ................
     264:	fe fe 06 06 06 0e fc f8 1c 1c 18 18 18 1c 0c 04     ................
     274:	fe fe 66 66 66 66 66 1c 1c 18 18 18 18 18 fe fe     ..fffff.........
     284:	66 66 66 66 06 1c 1c 00 00 00 00 00 f8 fc 0e 06     ffff............
     294:	06 c6 ce dc c8 04 0c 1c 18 18 18 18 0c 04 fe fe     ................
     2a4:	60 60 60 60 fe fe 1c 1c 00 00 00 00 1c 1c fe fe     ````............
     2b4:	1c 1c 80 80 00 00 00 fe fe 0c 1c 18 18 18 1c 0c     ................
     2c4:	fe fe 60 30 78 ec 86 02 1c 1c 00 00 00 04 1c 18     ..`0x...........
     2d4:	fe fe 00 00 00 00 00 1c 1c 18 18 18 18 18 fe fe     ................
     2e4:	0e 7c e0 00 e0 7c 0e fe fe 1c 1c 00 00 0c 1c 0c     .|...|..........
     2f4:	00 00 1c 1c fe fe 1c 78 e0 80 fe fe 1c 1c 00 00     .......x........
     304:	04 0c 1c 1c f8 fc 0e 06 06 06 0e fc f8 04 0c 1c     ................
     314:	18 18 18 1c 0c 04 fe fe 66 66 66 7e 3c 1c 1c 00     ........fff~<...
     324:	00 00 00 00 f8 fc 0e 06 86 06 0e fc f8 04 0c 1c     ................
     334:	18 18 1c 0c 1c 24 fe fe 66 66 e6 e6 be 1c 00 1c     .....$..ff......
     344:	1c 00 00 00 0c 1c 18 10 3c 7e 66 66 66 ee cc 0c     ........<~fff...
     354:	1c 18 18 18 1c 0c 06 06 06 fe fe 06 06 06 00 00     ................
     364:	00 1c 1c 00 00 00 fe fe 00 00 00 00 fe fe 04 0c     ................
     374:	1c 18 18 1c 0c 04 02 1e fc e0 00 e0 fc 1e 02 00     ................
     384:	00 00 1c 1c 1c 00 00 00 06 fe f8 00 f0 fe 0e fe     ................
     394:	f0 00 f8 fe 06 00 00 1c 1c 1c 00 00 00 1c 1c 1c     ................
     3a4:	00 00 06 0e f8 f0 f8 0e 06 18 1c 04 00 04 1c 18     ................
     3b4:	06 0e 38 f0 f0 38 0e 06 00 00 00 1c 1c 00 00 00     ..8..8..........
     3c4:	06 06 86 e6 76 1e 0e 06 18 1c 1c 18 18 18 18 18     ....v...........
     3d4:	fe fe 06 06 fc fc c0 c0 06 38 c0 00 00 00 04 18     .........8......
     3e4:	06 06 fe fe c0 c0 fc fc 20 38 0e 0e 38 20 00 00     ........ 8..8 ..
	...
     400:	80 80 80 80 80 80 80 80 02 06 04 00 00 00 10 98     ................
     410:	d8 58 f8 f0 00 0c 1c 18 18 0c 1c 10 fe fe 30 18     .X............0.
     420:	38 f0 e0 1c 1c 0c 18 1c 0c 04 e0 f0 18 18 38 30     8.............80
     430:	04 0c 18 18 1c 0c e0 f0 38 18 30 fe fe 04 0c 1c     ........8.0.....
     440:	18 0c 1c 1c e0 f0 d8 d8 d8 f0 e0 04 0c 18 18 18     ................
     450:	18 08 18 fc fe 1a 1a 00 1c 1c 00 00 e0 f0 38 18     ..............8.
     460:	30 f8 f8 64 ec dc d8 cc fc 7c fe fe 30 18 18 f8     0..d.....|..0...
     470:	f0 1c 1c 00 00 00 1c 1c fa fa 1c 1c 00 fa fa c0     ................
     480:	fc 7c fe fe e0 f0 98 08 1c 1c 00 04 1c 18 fe fe     .|..............
     490:	1c 1c f8 f8 10 18 f8 f0 18 18 f8 f0 1c 1c 00 00     ................
     4a0:	1c 1c 00 00 1c 1c f8 f8 30 18 18 f8 f0 1c 1c 00     ........0.......
     4b0:	00 00 1c 1c e0 f0 38 18 38 f0 e0 04 0c 1c 18 1c     ......8.8.......
     4c0:	0c 04 f8 f8 30 18 38 f0 e0 fc fc 0c 18 1c 0c 04     ....0.8.........
     4d0:	e0 f0 38 18 30 f8 f8 04 0c 1c 18 0c fc fc f8 f8     ..8.0...........
     4e0:	30 18 18 1c 1c 00 00 00 70 f8 d8 d8 d8 90 08 18     0.......p.......
     4f0:	18 18 1c 0c 18 fc fe 18 18 00 0c 1c 18 18 f8 f8     ................
     500:	00 00 00 f8 f8 0c 1c 18 18 0c 1c 1c 38 f8 c0 00     ............8...
     510:	c0 f8 38 00 00 1c 1c 1c 00 00 18 f8 e0 00 f0 38     ..8............8
     520:	f0 00 e0 f8 18 00 00 1c 1c 0c 00 0c 1c 1c 00 00     ................
     530:	18 38 e0 e0 38 18 18 1c 04 04 1c 18 18 f8 e0 00     .8..8...........
     540:	e0 f8 18 00 84 fc f8 3c 04 00 18 98 d8 78 38 1c     .......<.....x8.
     550:	1c 18 18 18 80 fc 7e 06 06 00 7c fc c0 c0 fe fc     ......~...|.....
     560:	06 06 7e fc 80 c0 c0 fc 7c 00 60 30 30 70 60 60     ..~.....|.`00p``
     570:	30 00 00 00 00 00 00 00 fe 02 02 02 02 02 02 fe     0...............
     580:	1c 10 10 10 10 10 10 1c                             ........

00000588 <Corsiva_12>:
     588:	16 3a 0a 0b 20 60 03 02 02 06 05 07 09 01 03 04     .:.. `..........
     598:	02 05 02 03 01 05 05 04 05 04 05 06 05 05 05 05     ................
     5a8:	02 03 05 05 05 04 07 07 07 06 08 07 07 07 0a 05     ................
     5b8:	06 09 07 09 0a 06 07 09 09 06 08 08 08 0b 09 09     ................
     5c8:	07 03 03 04 03 06 02 04 04 04 06 04 06 06 04 03     ................
     5d8:	04 06 03 06 04 04 05 05 04 04 04 04 06 08 07 05     ................
     5e8:	06 03 01 04 05 06 00 00 00 00 00 00 80 3e 00 00     .............>..
     5f8:	08 06 00 00 a0 78 ae 78 2e 08 00 00 00 00 00 00     .....x.x........
     608:	80 8c f2 bf 62 00 20 00 00 00 1c 92 7e 0c e2 90     ....b. .....~...
     618:	70 00 00 00 00 00 00 00 70 c8 a8 b8 6c be 02 c2     p.......p...l...
     628:	01 00 00 00 00 00 00 20 00 00 08 00 e0 18 06 60     ....... .......`
     638:	80 00 00 00 c3 3c 40 20 00 00 0c 0f 00 00 10 10     .....<@ ........
     648:	7c 10 10 00 00 00 00 00 00 80 40 20 20 20 20 00     |.........@    .
     658:	00 00 80 00 00 c0 30 0c 03 60 00 00 00 00 78 84     ......0..`....x.
     668:	82 42 3c 00 00 00 00 00 80 88 fc 86 00 00 00 00     .B<.............
     678:	c0 c4 a2 92 4e 00 00 00 00 00 c0 80 da 76 00 00     ....N........v..
     688:	00 00 20 30 a8 7e 02 00 00 00 00 00 80 80 84 4a     .. 0.~.........J
     698:	32 02 00 00 00 00 00 00 70 ac 94 72 02 00 00 00     2.......p..r....
     6a8:	00 00 c4 32 0a 06 02 00 00 00 00 00 e0 ac 92 6a     ...2...........j
     6b8:	06 00 00 00 00 00 80 9c 52 72 1c 00 00 00 00 00     ........Rr......
     6c8:	80 08 00 00 00 80 08 40 20 00 30 30 48 48 48 00     .......@ .00HHH.
     6d8:	00 00 00 00 28 28 28 28 28 00 00 00 00 00 48 48     ....(((((.....HH
     6e8:	48 30 30 00 00 00 00 00 80 36 12 0c 00 00 00 00     H00......6......
     6f8:	70 cc b4 aa ba 62 1c 00 00 00 00 00 00 00 00 80     p....b..........
     708:	4c 32 2e fe 82 20 00 00 00 00 00 00 38 24 86 fa     L2... ......8$..
     718:	8e 8a 76 00 00 00 00 00 00 00 f0 8c 04 02 82 0c     ..v.............
     728:	00 20 20 20 00 00 38 4c 86 ea 9a 82 46 3c 00 00     .   ..8L....F<..
     738:	00 00 00 00 00 00 38 84 e2 9e 92 ba c6 00 00 00     ......8.........
     748:	00 00 00 00 1c 86 e2 9e 12 3a 06 00 00 00 00 00     .........:......
     758:	00 00 70 8c 84 82 d2 32 16 00 80 80 c0 20 00 00     ..p....2..... ..
     768:	c0 8c c2 3a 16 90 f8 86 01 03 00 00 00 00 00 00     ...:............
     778:	00 00 00 00 80 c0 fa 06 02 00 00 00 00 00 00 00     ................
     788:	0c c2 3a 06 60 40 40 20 00 00 8c 82 f2 1e 78 88     ..:.`@@ ......x.
     798:	06 02 02 00 00 00 00 00 20 40 40 40 80 c0 b8 84     ........ @@@....
     7a8:	82 82 c0 00 00 00 00 00 00 00 80 9c 62 1e f8 60     ............b..`
     7b8:	90 fc 0e 00 00 00 00 00 00 00 00 00 80 0c e2 12     ................
     7c8:	0e f0 70 0c 02 02 20 20 00 00 00 00 00 00 00 00     ..p...  ........
     7d8:	78 c4 82 82 46 3c 00 00 00 00 00 00 38 cc 86 fa     x...F<......8...
     7e8:	92 12 0c 00 00 00 00 00 00 00 78 c4 82 82 42 26     ..........x...B&
     7f8:	1c 00 00 00 00 00 20 60 c0 80 80 40 38 a4 86 fa     ...... `...@8...
     808:	32 d2 0c 00 00 00 00 00 00 00 00 60 40 40 80 00     2..........`@@..
     818:	0c 92 e2 0e 00 20 20 20 00 00 1c 86 82 f2 8e 02     .....   ........
     828:	02 03 00 00 00 00 00 00 00 00 0c 7a 86 80 80 40     ...........z...@
     838:	30 0f 00 00 00 00 00 00 00 00 0c 06 fe 42 20 10     0............B .
     848:	0c 03 00 00 00 00 00 00 00 00 0c 06 fe 32 08 04     .............2..
     858:	fe 20 10 08 07 00 00 00 00 00 00 00 00 00 00 00     . ..............
     868:	00 80 40 22 1e f4 82 01 01 20 20 00 00 00 00 00     ..@".....  .....
     878:	00 00 1c 04 82 c6 bc 8c 02 02 01 00 00 00 00 00     ................
     888:	00 00 00 00 80 c0 a6 92 8a 86 c2 00 00 00 00 00     ................
     898:	00 00 00 f0 0f c0 a0 00 07 fc 80 00 00 60 00 00     .............`..
     8a8:	f1 0f 80 e0 00 00 04 02 04 00 00 00 00 00 00 00     ................
     8b8:	00 00 40 40 40 40 40 40 01 02 00 00 e0 90 c8 b8     ..@@@@@@........
     8c8:	00 00 00 00 e0 9e 49 39 00 00 00 00 e0 90 88 48     ......I9.......H
     8d8:	00 00 00 00 e0 90 48 f8 4e 01 00 00 00 00 00 00     ......H.N.......
     8e8:	f0 b0 a8 58 00 00 00 00 00 90 78 16 01 01 40 20     ...X......x...@ 
     8f8:	00 00 00 00 00 e0 90 88 e8 18 e0 80 80 c0 60 00     ..............`.
     908:	e0 1e d1 b9 00 00 00 00 e0 38 02 00 00 00 00 90     .........8......
     918:	78 02 80 60 00 00 e0 3e e9 19 00 00 00 00 00 60     x..`...>.......`
     928:	40 40 e0 9c 42 00 00 00 c8 38 d0 38 f0 98 00 00     @@..B....8.8....
     938:	00 00 00 00 e8 18 d0 b8 00 00 00 00 f0 88 c8 38     ...............8
     948:	00 00 00 00 88 f8 90 48 38 e0 80 00 00 00 e0 90     .......H8.......
     958:	88 e8 18 00 80 c0 a0 00 c8 38 10 08 00 00 00 00     .........8......
     968:	c0 98 e8 08 00 00 00 00 e8 9c 88 40 00 00 00 00     ...........@....
     978:	e8 98 e0 98 00 00 00 00 10 08 f8 88 60 18 00 00     ............`...
     988:	00 00 00 00 10 08 f8 88 40 f8 40 38 00 00 00 00     ........@.@8....
     998:	00 00 00 00 80 d0 58 f0 10 08 00 00 00 00 00 20     ......X........ 
     9a8:	40 60 10 18 f0 c0 38 80 40 20 00 00 80 d8 a8 98     @`....8.@ ......
     9b8:	d8 08 00 00 00 00 00 00 a0 d8 07 e0 80 00 ff e0     ................
     9c8:	00 00 d1 2f 80 c0 20 00 08 08 18 10 10 00 00 00     .../.. .........
     9d8:	00 00 ff 81 81 81 81 ff 00 00 00 00 00 00           ..............

000009e6 <__c.1438>:
     9e6:	48 65 61 72 74 20 52 61 74 65 2c 20 45 43 47 20     Heart Rate, ECG 
     9f6:	57 61 76 65 20 0a 20 20 20 20 20 61 6e 64 20 42     Wave .     and B
     a06:	6c 6f 6f 64 20 50 72 65 73 73 75 72 65 20 0a 20     lood Pressure . 
     a16:	20 20 20 20 20 20 20 4d 65 61 73 75 72 65 6d 65            Measureme
     a26:	6e 74 20 55 6e 69 74 00                             nt Unit.

00000a2e <__c.1436>:
     a2e:	4d 65 64 69 63 61 6c 20 4c 61 62 00                 Medical Lab.

00000a3a <__ctors_end>:
     a3a:	11 24       	eor	r1, r1
     a3c:	1f be       	out	0x3f, r1	; 63
     a3e:	cf e5       	ldi	r28, 0x5F	; 95
     a40:	d8 e0       	ldi	r29, 0x08	; 8
     a42:	de bf       	out	0x3e, r29	; 62
     a44:	cd bf       	out	0x3d, r28	; 61

00000a46 <__do_clear_bss>:
     a46:	10 e0       	ldi	r17, 0x00	; 0
     a48:	a0 e6       	ldi	r26, 0x60	; 96
     a4a:	b0 e0       	ldi	r27, 0x00	; 0
     a4c:	01 c0       	rjmp	.+2      	; 0xa50 <.do_clear_bss_start>

00000a4e <.do_clear_bss_loop>:
     a4e:	1d 92       	st	X+, r1

00000a50 <.do_clear_bss_start>:
     a50:	a9 36       	cpi	r26, 0x69	; 105
     a52:	b1 07       	cpc	r27, r17
     a54:	e1 f7       	brne	.-8      	; 0xa4e <.do_clear_bss_loop>
     a56:	0e 94 c6 0b 	call	0x178c	; 0x178c <main>
     a5a:	0c 94 f7 0b 	jmp	0x17ee	; 0x17ee <_exit>

00000a5e <__bad_interrupt>:
     a5e:	0c 94 00 00 	jmp	0	; 0x0 <__vectors>

00000a62 <ks0108ReadFontData>:
     a62:	fc 01       	movw	r30, r24
     a64:	84 91       	lpm	r24, Z+
     a66:	08 95       	ret

00000a68 <ks0108SelectFont>:
     a68:	90 93 68 00 	sts	0x0068, r25
     a6c:	80 93 67 00 	sts	0x0067, r24
     a70:	70 93 66 00 	sts	0x0066, r23
     a74:	60 93 65 00 	sts	0x0065, r22
     a78:	40 93 61 00 	sts	0x0061, r20
     a7c:	08 95       	ret

00000a7e <ks0108CharWidth>:
     a7e:	0f 93       	push	r16
     a80:	1f 93       	push	r17
     a82:	18 2f       	mov	r17, r24
     a84:	80 91 67 00 	lds	r24, 0x0067
     a88:	90 91 68 00 	lds	r25, 0x0068
     a8c:	e0 91 65 00 	lds	r30, 0x0065
     a90:	f0 91 66 00 	lds	r31, 0x0066
     a94:	04 96       	adiw	r24, 0x04	; 4
     a96:	09 95       	icall
     a98:	08 2f       	mov	r16, r24
     a9a:	80 91 67 00 	lds	r24, 0x0067
     a9e:	90 91 68 00 	lds	r25, 0x0068
     aa2:	e0 91 65 00 	lds	r30, 0x0065
     aa6:	f0 91 66 00 	lds	r31, 0x0066
     aaa:	05 96       	adiw	r24, 0x05	; 5
     aac:	09 95       	icall
     aae:	41 2f       	mov	r20, r17
     ab0:	55 27       	eor	r21, r21
     ab2:	47 fd       	sbrc	r20, 7
     ab4:	50 95       	com	r21
     ab6:	20 2f       	mov	r18, r16
     ab8:	30 e0       	ldi	r19, 0x00	; 0
     aba:	42 17       	cp	r20, r18
     abc:	53 07       	cpc	r21, r19
     abe:	cc f0       	brlt	.+50     	; 0xaf2 <ks0108CharWidth+0x74>
     ac0:	28 0f       	add	r18, r24
     ac2:	31 1d       	adc	r19, r1
     ac4:	42 17       	cp	r20, r18
     ac6:	53 07       	cpc	r21, r19
     ac8:	a4 f4       	brge	.+40     	; 0xaf2 <ks0108CharWidth+0x74>
     aca:	10 1b       	sub	r17, r16
     acc:	21 2f       	mov	r18, r17
     ace:	33 27       	eor	r19, r19
     ad0:	27 fd       	sbrc	r18, 7
     ad2:	30 95       	com	r19
     ad4:	2a 5f       	subi	r18, 0xFA	; 250
     ad6:	3f 4f       	sbci	r19, 0xFF	; 255
     ad8:	80 91 67 00 	lds	r24, 0x0067
     adc:	90 91 68 00 	lds	r25, 0x0068
     ae0:	e0 91 65 00 	lds	r30, 0x0065
     ae4:	f0 91 66 00 	lds	r31, 0x0066
     ae8:	82 0f       	add	r24, r18
     aea:	93 1f       	adc	r25, r19
     aec:	09 95       	icall
     aee:	8f 5f       	subi	r24, 0xFF	; 255
     af0:	01 c0       	rjmp	.+2      	; 0xaf4 <ks0108CharWidth+0x76>
     af2:	80 e0       	ldi	r24, 0x00	; 0
     af4:	1f 91       	pop	r17
     af6:	0f 91       	pop	r16
     af8:	08 95       	ret

00000afa <ks0108StringWidth>:
     afa:	0f 93       	push	r16
     afc:	1f 93       	push	r17
     afe:	cf 93       	push	r28
     b00:	df 93       	push	r29
     b02:	8c 01       	movw	r16, r24
     b04:	c0 e0       	ldi	r28, 0x00	; 0
     b06:	d0 e0       	ldi	r29, 0x00	; 0
     b08:	06 c0       	rjmp	.+12     	; 0xb16 <ks0108StringWidth+0x1c>
     b0a:	0f 5f       	subi	r16, 0xFF	; 255
     b0c:	1f 4f       	sbci	r17, 0xFF	; 255
     b0e:	0e 94 3f 05 	call	0xa7e	; 0xa7e <ks0108CharWidth>
     b12:	c8 0f       	add	r28, r24
     b14:	d1 1d       	adc	r29, r1
     b16:	f8 01       	movw	r30, r16
     b18:	80 81       	ld	r24, Z
     b1a:	88 23       	and	r24, r24
     b1c:	b1 f7       	brne	.-20     	; 0xb0a <ks0108StringWidth+0x10>
     b1e:	ce 01       	movw	r24, r28
     b20:	df 91       	pop	r29
     b22:	cf 91       	pop	r28
     b24:	1f 91       	pop	r17
     b26:	0f 91       	pop	r16
     b28:	08 95       	ret

00000b2a <ks0108StringWidth_P>:
     b2a:	0f 93       	push	r16
     b2c:	1f 93       	push	r17
     b2e:	cf 93       	push	r28
     b30:	df 93       	push	r29
     b32:	ec 01       	movw	r28, r24
     b34:	00 e0       	ldi	r16, 0x00	; 0
     b36:	10 e0       	ldi	r17, 0x00	; 0
     b38:	07 c0       	rjmp	.+14     	; 0xb48 <ks0108StringWidth_P+0x1e>
     b3a:	21 96       	adiw	r28, 0x01	; 1
     b3c:	f9 01       	movw	r30, r18
     b3e:	84 91       	lpm	r24, Z+
     b40:	0e 94 3f 05 	call	0xa7e	; 0xa7e <ks0108CharWidth>
     b44:	08 0f       	add	r16, r24
     b46:	11 1d       	adc	r17, r1
     b48:	9e 01       	movw	r18, r28
     b4a:	fe 01       	movw	r30, r28
     b4c:	84 91       	lpm	r24, Z+
     b4e:	88 23       	and	r24, r24
     b50:	a1 f7       	brne	.-24     	; 0xb3a <ks0108StringWidth_P+0x10>
     b52:	c8 01       	movw	r24, r16
     b54:	df 91       	pop	r29
     b56:	cf 91       	pop	r28
     b58:	1f 91       	pop	r17
     b5a:	0f 91       	pop	r16
     b5c:	08 95       	ret

00000b5e <ks0108Enable>:
     b5e:	df 93       	push	r29
     b60:	cf 93       	push	r28
     b62:	0f 92       	push	r0
     b64:	cd b7       	in	r28, 0x3d	; 61
     b66:	de b7       	in	r29, 0x3e	; 62
     b68:	19 82       	std	Y+1, r1	; 0x01
     b6a:	aa 9a       	sbi	0x15, 2	; 21
     b6c:	00 00       	nop
     b6e:	00 00       	nop
     b70:	00 00       	nop
     b72:	aa 98       	cbi	0x15, 2	; 21
     b74:	19 82       	std	Y+1, r1	; 0x01
     b76:	03 c0       	rjmp	.+6      	; 0xb7e <ks0108Enable+0x20>
     b78:	89 81       	ldd	r24, Y+1	; 0x01
     b7a:	8f 5f       	subi	r24, 0xFF	; 255
     b7c:	89 83       	std	Y+1, r24	; 0x01
     b7e:	89 81       	ldd	r24, Y+1	; 0x01
     b80:	88 30       	cpi	r24, 0x08	; 8
     b82:	d0 f3       	brcs	.-12     	; 0xb78 <ks0108Enable+0x1a>
     b84:	0f 90       	pop	r0
     b86:	cf 91       	pop	r28
     b88:	df 91       	pop	r29
     b8a:	08 95       	ret

00000b8c <ks0108WriteCommand>:
     b8c:	98 2f       	mov	r25, r24
     b8e:	66 23       	and	r22, r22
     b90:	19 f4       	brne	.+6      	; 0xb98 <ks0108WriteCommand+0xc>
     b92:	ac 98       	cbi	0x15, 4	; 21
     b94:	ab 9a       	sbi	0x15, 3	; 21
     b96:	04 c0       	rjmp	.+8      	; 0xba0 <ks0108WriteCommand+0x14>
     b98:	61 30       	cpi	r22, 0x01	; 1
     b9a:	11 f4       	brne	.+4      	; 0xba0 <ks0108WriteCommand+0x14>
     b9c:	ab 98       	cbi	0x15, 3	; 21
     b9e:	ac 9a       	sbi	0x15, 4	; 21
     ba0:	a8 98       	cbi	0x15, 0	; 21
     ba2:	a9 98       	cbi	0x15, 1	; 21
     ba4:	8f ef       	ldi	r24, 0xFF	; 255
     ba6:	87 bb       	out	0x17, r24	; 23
     ba8:	98 bb       	out	0x18, r25	; 24
     baa:	0e 94 af 05 	call	0xb5e	; 0xb5e <ks0108Enable>
     bae:	18 ba       	out	0x18, r1	; 24
     bb0:	08 95       	ret

00000bb2 <ks0108GotoXY>:
     bb2:	1f 93       	push	r17
     bb4:	87 fd       	sbrc	r24, 7
     bb6:	80 e0       	ldi	r24, 0x00	; 0
     bb8:	60 34       	cpi	r22, 0x40	; 64
     bba:	08 f0       	brcs	.+2      	; 0xbbe <ks0108GotoXY+0xc>
     bbc:	60 e0       	ldi	r22, 0x00	; 0
     bbe:	80 93 62 00 	sts	0x0062, r24
     bc2:	60 93 63 00 	sts	0x0063, r22
     bc6:	66 95       	lsr	r22
     bc8:	66 95       	lsr	r22
     bca:	66 95       	lsr	r22
     bcc:	60 93 64 00 	sts	0x0064, r22
     bd0:	80 34       	cpi	r24, 0x40	; 64
     bd2:	10 f4       	brcc	.+4      	; 0xbd8 <ks0108GotoXY+0x26>
     bd4:	60 e0       	ldi	r22, 0x00	; 0
     bd6:	02 c0       	rjmp	.+4      	; 0xbdc <ks0108GotoXY+0x2a>
     bd8:	80 54       	subi	r24, 0x40	; 64
     bda:	61 e0       	ldi	r22, 0x01	; 1
     bdc:	80 64       	ori	r24, 0x40	; 64
     bde:	0e 94 c6 05 	call	0xb8c	; 0xb8c <ks0108WriteCommand>
     be2:	10 91 64 00 	lds	r17, 0x0064
     be6:	18 6b       	ori	r17, 0xB8	; 184
     be8:	81 2f       	mov	r24, r17
     bea:	60 e0       	ldi	r22, 0x00	; 0
     bec:	0e 94 c6 05 	call	0xb8c	; 0xb8c <ks0108WriteCommand>
     bf0:	81 2f       	mov	r24, r17
     bf2:	61 e0       	ldi	r22, 0x01	; 1
     bf4:	0e 94 c6 05 	call	0xb8c	; 0xb8c <ks0108WriteCommand>
     bf8:	1f 91       	pop	r17
     bfa:	08 95       	ret

00000bfc <ks0108DoReadData>:
     bfc:	1f 93       	push	r17
     bfe:	df 93       	push	r29
     c00:	cf 93       	push	r28
     c02:	0f 92       	push	r0
     c04:	cd b7       	in	r28, 0x3d	; 61
     c06:	de b7       	in	r29, 0x3e	; 62
     c08:	18 ba       	out	0x18, r1	; 24
     c0a:	17 ba       	out	0x17, r1	; 23
     c0c:	90 91 62 00 	lds	r25, 0x0062
     c10:	90 34       	cpi	r25, 0x40	; 64
     c12:	18 f4       	brcc	.+6      	; 0xc1a <ks0108DoReadData+0x1e>
     c14:	ac 98       	cbi	0x15, 4	; 21
     c16:	ab 9a       	sbi	0x15, 3	; 21
     c18:	02 c0       	rjmp	.+4      	; 0xc1e <ks0108DoReadData+0x22>
     c1a:	ab 98       	cbi	0x15, 3	; 21
     c1c:	ac 9a       	sbi	0x15, 4	; 21
     c1e:	90 34       	cpi	r25, 0x40	; 64
     c20:	31 f4       	brne	.+12     	; 0xc2e <ks0108DoReadData+0x32>
     c22:	88 23       	and	r24, r24
     c24:	21 f0       	breq	.+8      	; 0xc2e <ks0108DoReadData+0x32>
     c26:	80 e4       	ldi	r24, 0x40	; 64
     c28:	61 e0       	ldi	r22, 0x01	; 1
     c2a:	0e 94 c6 05 	call	0xb8c	; 0xb8c <ks0108WriteCommand>
     c2e:	a8 9a       	sbi	0x15, 0	; 21
     c30:	a9 9a       	sbi	0x15, 1	; 21
     c32:	aa 9a       	sbi	0x15, 2	; 21
     c34:	00 00       	nop
     c36:	00 00       	nop
     c38:	00 00       	nop
     c3a:	16 b3       	in	r17, 0x16	; 22
     c3c:	aa 98       	cbi	0x15, 2	; 21
     c3e:	19 82       	std	Y+1, r1	; 0x01
     c40:	03 c0       	rjmp	.+6      	; 0xc48 <ks0108DoReadData+0x4c>
     c42:	89 81       	ldd	r24, Y+1	; 0x01
     c44:	8f 5f       	subi	r24, 0xFF	; 255
     c46:	89 83       	std	Y+1, r24	; 0x01
     c48:	89 81       	ldd	r24, Y+1	; 0x01
     c4a:	88 30       	cpi	r24, 0x08	; 8
     c4c:	d0 f3       	brcs	.-12     	; 0xc42 <ks0108DoReadData+0x46>
     c4e:	8f ef       	ldi	r24, 0xFF	; 255
     c50:	87 bb       	out	0x17, r24	; 23
     c52:	80 91 62 00 	lds	r24, 0x0062
     c56:	60 91 63 00 	lds	r22, 0x0063
     c5a:	0e 94 d9 05 	call	0xbb2	; 0xbb2 <ks0108GotoXY>
     c5e:	80 91 60 00 	lds	r24, 0x0060
     c62:	81 11       	cpse	r24, r1
     c64:	10 95       	com	r17
     c66:	81 2f       	mov	r24, r17
     c68:	0f 90       	pop	r0
     c6a:	cf 91       	pop	r28
     c6c:	df 91       	pop	r29
     c6e:	1f 91       	pop	r17
     c70:	08 95       	ret

00000c72 <ks0108ReadData>:
     c72:	81 e0       	ldi	r24, 0x01	; 1
     c74:	0e 94 fe 05 	call	0xbfc	; 0xbfc <ks0108DoReadData>
     c78:	80 e0       	ldi	r24, 0x00	; 0
     c7a:	0e 94 fe 05 	call	0xbfc	; 0xbfc <ks0108DoReadData>
     c7e:	08 95       	ret

00000c80 <ks0108WriteData>:
     c80:	ef 92       	push	r14
     c82:	ff 92       	push	r15
     c84:	0f 93       	push	r16
     c86:	1f 93       	push	r17
     c88:	cf 93       	push	r28
     c8a:	df 93       	push	r29
     c8c:	08 2f       	mov	r16, r24
     c8e:	80 91 62 00 	lds	r24, 0x0062
     c92:	87 fd       	sbrc	r24, 7
     c94:	63 c0       	rjmp	.+198    	; 0xd5c <ks0108WriteData+0xdc>
     c96:	80 34       	cpi	r24, 0x40	; 64
     c98:	18 f4       	brcc	.+6      	; 0xca0 <ks0108WriteData+0x20>
     c9a:	ac 98       	cbi	0x15, 4	; 21
     c9c:	ab 9a       	sbi	0x15, 3	; 21
     c9e:	02 c0       	rjmp	.+4      	; 0xca4 <ks0108WriteData+0x24>
     ca0:	ab 98       	cbi	0x15, 3	; 21
     ca2:	ac 9a       	sbi	0x15, 4	; 21
     ca4:	80 34       	cpi	r24, 0x40	; 64
     ca6:	19 f4       	brne	.+6      	; 0xcae <ks0108WriteData+0x2e>
     ca8:	61 e0       	ldi	r22, 0x01	; 1
     caa:	0e 94 c6 05 	call	0xb8c	; 0xb8c <ks0108WriteCommand>
     cae:	a8 9a       	sbi	0x15, 0	; 21
     cb0:	a9 98       	cbi	0x15, 1	; 21
     cb2:	ff 24       	eor	r15, r15
     cb4:	fa 94       	dec	r15
     cb6:	f7 ba       	out	0x17, r15	; 23
     cb8:	10 91 63 00 	lds	r17, 0x0063
     cbc:	17 70       	andi	r17, 0x07	; 7
     cbe:	09 f4       	brne	.+2      	; 0xcc2 <ks0108WriteData+0x42>
     cc0:	40 c0       	rjmp	.+128    	; 0xd42 <ks0108WriteData+0xc2>
     cc2:	e5 b2       	in	r14, 0x15	; 21
     cc4:	0e 94 39 06 	call	0xc72	; 0xc72 <ks0108ReadData>
     cc8:	e5 ba       	out	0x15, r14	; 21
     cca:	f7 ba       	out	0x17, r15	; 23
     ccc:	c0 2f       	mov	r28, r16
     cce:	d0 e0       	ldi	r29, 0x00	; 0
     cd0:	01 2f       	mov	r16, r17
     cd2:	10 e0       	ldi	r17, 0x00	; 0
     cd4:	9e 01       	movw	r18, r28
     cd6:	00 2e       	mov	r0, r16
     cd8:	02 c0       	rjmp	.+4      	; 0xcde <ks0108WriteData+0x5e>
     cda:	22 0f       	add	r18, r18
     cdc:	33 1f       	adc	r19, r19
     cde:	0a 94       	dec	r0
     ce0:	e2 f7       	brpl	.-8      	; 0xcda <ks0108WriteData+0x5a>
     ce2:	98 2f       	mov	r25, r24
     ce4:	92 2b       	or	r25, r18
     ce6:	80 91 60 00 	lds	r24, 0x0060
     cea:	81 11       	cpse	r24, r1
     cec:	90 95       	com	r25
     cee:	98 bb       	out	0x18, r25	; 24
     cf0:	0e 94 af 05 	call	0xb5e	; 0xb5e <ks0108Enable>
     cf4:	60 91 63 00 	lds	r22, 0x0063
     cf8:	68 5f       	subi	r22, 0xF8	; 248
     cfa:	80 91 62 00 	lds	r24, 0x0062
     cfe:	0e 94 d9 05 	call	0xbb2	; 0xbb2 <ks0108GotoXY>
     d02:	0e 94 39 06 	call	0xc72	; 0xc72 <ks0108ReadData>
     d06:	e5 ba       	out	0x15, r14	; 21
     d08:	9f ef       	ldi	r25, 0xFF	; 255
     d0a:	97 bb       	out	0x17, r25	; 23
     d0c:	28 e0       	ldi	r18, 0x08	; 8
     d0e:	30 e0       	ldi	r19, 0x00	; 0
     d10:	20 1b       	sub	r18, r16
     d12:	31 0b       	sbc	r19, r17
     d14:	02 c0       	rjmp	.+4      	; 0xd1a <ks0108WriteData+0x9a>
     d16:	d5 95       	asr	r29
     d18:	c7 95       	ror	r28
     d1a:	2a 95       	dec	r18
     d1c:	e2 f7       	brpl	.-8      	; 0xd16 <ks0108WriteData+0x96>
     d1e:	28 2f       	mov	r18, r24
     d20:	2c 2b       	or	r18, r28
     d22:	80 91 60 00 	lds	r24, 0x0060
     d26:	81 11       	cpse	r24, r1
     d28:	20 95       	com	r18
     d2a:	28 bb       	out	0x18, r18	; 24
     d2c:	0e 94 af 05 	call	0xb5e	; 0xb5e <ks0108Enable>
     d30:	80 91 62 00 	lds	r24, 0x0062
     d34:	60 91 63 00 	lds	r22, 0x0063
     d38:	68 50       	subi	r22, 0x08	; 8
     d3a:	8f 5f       	subi	r24, 0xFF	; 255
     d3c:	0e 94 d9 05 	call	0xbb2	; 0xbb2 <ks0108GotoXY>
     d40:	0c c0       	rjmp	.+24     	; 0xd5a <ks0108WriteData+0xda>
     d42:	80 91 60 00 	lds	r24, 0x0060
     d46:	81 11       	cpse	r24, r1
     d48:	00 95       	com	r16
     d4a:	08 bb       	out	0x18, r16	; 24
     d4c:	0e 94 af 05 	call	0xb5e	; 0xb5e <ks0108Enable>
     d50:	80 91 62 00 	lds	r24, 0x0062
     d54:	8f 5f       	subi	r24, 0xFF	; 255
     d56:	80 93 62 00 	sts	0x0062, r24
     d5a:	18 ba       	out	0x18, r1	; 24
     d5c:	df 91       	pop	r29
     d5e:	cf 91       	pop	r28
     d60:	1f 91       	pop	r17
     d62:	0f 91       	pop	r16
     d64:	ff 90       	pop	r15
     d66:	ef 90       	pop	r14
     d68:	08 95       	ret

00000d6a <ks0108PutChar>:
     d6a:	2f 92       	push	r2
     d6c:	3f 92       	push	r3
     d6e:	4f 92       	push	r4
     d70:	5f 92       	push	r5
     d72:	6f 92       	push	r6
     d74:	7f 92       	push	r7
     d76:	8f 92       	push	r8
     d78:	9f 92       	push	r9
     d7a:	af 92       	push	r10
     d7c:	bf 92       	push	r11
     d7e:	cf 92       	push	r12
     d80:	df 92       	push	r13
     d82:	ef 92       	push	r14
     d84:	ff 92       	push	r15
     d86:	0f 93       	push	r16
     d88:	1f 93       	push	r17
     d8a:	cf 93       	push	r28
     d8c:	df 93       	push	r29
     d8e:	e8 2e       	mov	r14, r24
     d90:	80 91 67 00 	lds	r24, 0x0067
     d94:	90 91 68 00 	lds	r25, 0x0068
     d98:	e0 91 65 00 	lds	r30, 0x0065
     d9c:	f0 91 66 00 	lds	r31, 0x0066
     da0:	03 96       	adiw	r24, 0x03	; 3
     da2:	09 95       	icall
     da4:	c8 2e       	mov	r12, r24
     da6:	80 91 67 00 	lds	r24, 0x0067
     daa:	90 91 68 00 	lds	r25, 0x0068
     dae:	e0 91 65 00 	lds	r30, 0x0065
     db2:	f0 91 66 00 	lds	r31, 0x0066
     db6:	04 96       	adiw	r24, 0x04	; 4
     db8:	09 95       	icall
     dba:	18 2f       	mov	r17, r24
     dbc:	80 91 67 00 	lds	r24, 0x0067
     dc0:	90 91 68 00 	lds	r25, 0x0068
     dc4:	e0 91 65 00 	lds	r30, 0x0065
     dc8:	f0 91 66 00 	lds	r31, 0x0066
     dcc:	05 96       	adiw	r24, 0x05	; 5
     dce:	09 95       	icall
     dd0:	d8 2e       	mov	r13, r24
     dd2:	50 90 62 00 	lds	r5, 0x0062
     dd6:	20 90 63 00 	lds	r2, 0x0063
     dda:	2e 2d       	mov	r18, r14
     ddc:	33 27       	eor	r19, r19
     dde:	27 fd       	sbrc	r18, 7
     de0:	30 95       	com	r19
     de2:	81 2f       	mov	r24, r17
     de4:	90 e0       	ldi	r25, 0x00	; 0
     de6:	28 17       	cp	r18, r24
     de8:	39 07       	cpc	r19, r25
     dea:	0c f4       	brge	.+2      	; 0xdee <ks0108PutChar+0x84>
     dec:	a2 c0       	rjmp	.+324    	; 0xf32 <ks0108PutChar+0x1c8>
     dee:	8d 0d       	add	r24, r13
     df0:	91 1d       	adc	r25, r1
     df2:	28 17       	cp	r18, r24
     df4:	39 07       	cpc	r19, r25
     df6:	0c f0       	brlt	.+2      	; 0xdfa <ks0108PutChar+0x90>
     df8:	9c c0       	rjmp	.+312    	; 0xf32 <ks0108PutChar+0x1c8>
     dfa:	e1 1a       	sub	r14, r17
     dfc:	00 e0       	ldi	r16, 0x00	; 0
     dfe:	10 e0       	ldi	r17, 0x00	; 0
     e00:	ff 24       	eor	r15, r15
     e02:	ce 2d       	mov	r28, r14
     e04:	dd 27       	eor	r29, r29
     e06:	c7 fd       	sbrc	r28, 7
     e08:	d0 95       	com	r29
     e0a:	07 c0       	rjmp	.+14     	; 0xe1a <ks0108PutChar+0xb0>
     e0c:	06 96       	adiw	r24, 0x06	; 6
     e0e:	82 0f       	add	r24, r18
     e10:	93 1f       	adc	r25, r19
     e12:	09 95       	icall
     e14:	08 0f       	add	r16, r24
     e16:	11 1d       	adc	r17, r1
     e18:	f3 94       	inc	r15
     e1a:	8f 2d       	mov	r24, r15
     e1c:	90 e0       	ldi	r25, 0x00	; 0
     e1e:	20 91 67 00 	lds	r18, 0x0067
     e22:	30 91 68 00 	lds	r19, 0x0068
     e26:	e0 91 65 00 	lds	r30, 0x0065
     e2a:	f0 91 66 00 	lds	r31, 0x0066
     e2e:	8c 17       	cp	r24, r28
     e30:	9d 07       	cpc	r25, r29
     e32:	64 f3       	brlt	.-40     	; 0xe0c <ks0108PutChar+0xa2>
     e34:	ec 2c       	mov	r14, r12
     e36:	ff 24       	eor	r15, r15
     e38:	47 e0       	ldi	r20, 0x07	; 7
     e3a:	50 e0       	ldi	r21, 0x00	; 0
     e3c:	e4 0e       	add	r14, r20
     e3e:	f5 1e       	adc	r15, r21
     e40:	c7 01       	movw	r24, r14
     e42:	43 e0       	ldi	r20, 0x03	; 3
     e44:	95 95       	asr	r25
     e46:	87 95       	ror	r24
     e48:	4a 95       	dec	r20
     e4a:	e1 f7       	brne	.-8      	; 0xe44 <ks0108PutChar+0xda>
     e4c:	49 ef       	ldi	r20, 0xF9	; 249
     e4e:	5f ef       	ldi	r21, 0xFF	; 255
     e50:	e4 0e       	add	r14, r20
     e52:	f5 1e       	adc	r15, r21
     e54:	38 2e       	mov	r3, r24
     e56:	ac 01       	movw	r20, r24
     e58:	40 9f       	mul	r20, r16
     e5a:	c0 01       	movw	r24, r0
     e5c:	41 9f       	mul	r20, r17
     e5e:	90 0d       	add	r25, r0
     e60:	50 9f       	mul	r21, r16
     e62:	90 0d       	add	r25, r0
     e64:	11 24       	eor	r1, r1
     e66:	cd 2c       	mov	r12, r13
     e68:	dd 24       	eor	r13, r13
     e6a:	46 e0       	ldi	r20, 0x06	; 6
     e6c:	50 e0       	ldi	r21, 0x00	; 0
     e6e:	c4 0e       	add	r12, r20
     e70:	d5 1e       	adc	r13, r21
     e72:	c8 0e       	add	r12, r24
     e74:	d9 1e       	adc	r13, r25
     e76:	26 96       	adiw	r28, 0x06	; 6
     e78:	c9 01       	movw	r24, r18
     e7a:	8c 0f       	add	r24, r28
     e7c:	9d 1f       	adc	r25, r29
     e7e:	09 95       	icall
     e80:	68 2e       	mov	r6, r24
     e82:	08 e0       	ldi	r16, 0x08	; 8
     e84:	10 e0       	ldi	r17, 0x00	; 0
     e86:	0e 19       	sub	r16, r14
     e88:	1f 09       	sbc	r17, r15
     e8a:	77 24       	eor	r7, r7
     e8c:	88 24       	eor	r8, r8
     e8e:	88 e0       	ldi	r24, 0x08	; 8
     e90:	a8 2e       	mov	r10, r24
     e92:	b1 2c       	mov	r11, r1
     e94:	42 c0       	rjmp	.+132    	; 0xf1a <ks0108PutChar+0x1b0>
     e96:	40 2e       	mov	r4, r16
     e98:	e6 01       	movw	r28, r12
     e9a:	c8 0d       	add	r28, r8
     e9c:	d1 1d       	adc	r29, r1
     e9e:	99 24       	eor	r9, r9
     ea0:	23 c0       	rjmp	.+70     	; 0xee8 <ks0108PutChar+0x17e>
     ea2:	80 91 67 00 	lds	r24, 0x0067
     ea6:	90 91 68 00 	lds	r25, 0x0068
     eaa:	e0 91 65 00 	lds	r30, 0x0065
     eae:	f0 91 66 00 	lds	r31, 0x0066
     eb2:	8c 0f       	add	r24, r28
     eb4:	9d 1f       	adc	r25, r29
     eb6:	09 95       	icall
     eb8:	98 2f       	mov	r25, r24
     eba:	ea 14       	cp	r14, r10
     ebc:	fb 04       	cpc	r15, r11
     ebe:	44 f4       	brge	.+16     	; 0xed0 <ks0108PutChar+0x166>
     ec0:	90 e0       	ldi	r25, 0x00	; 0
     ec2:	04 2c       	mov	r0, r4
     ec4:	02 c0       	rjmp	.+4      	; 0xeca <ks0108PutChar+0x160>
     ec6:	95 95       	asr	r25
     ec8:	87 95       	ror	r24
     eca:	0a 94       	dec	r0
     ecc:	e2 f7       	brpl	.-8      	; 0xec6 <ks0108PutChar+0x15c>
     ece:	98 2f       	mov	r25, r24
     ed0:	80 91 61 00 	lds	r24, 0x0061
     ed4:	8f 3f       	cpi	r24, 0xFF	; 255
     ed6:	11 f4       	brne	.+4      	; 0xedc <ks0108PutChar+0x172>
     ed8:	89 2f       	mov	r24, r25
     eda:	02 c0       	rjmp	.+4      	; 0xee0 <ks0108PutChar+0x176>
     edc:	89 2f       	mov	r24, r25
     ede:	80 95       	com	r24
     ee0:	0e 94 40 06 	call	0xc80	; 0xc80 <ks0108WriteData>
     ee4:	93 94       	inc	r9
     ee6:	21 96       	adiw	r28, 0x01	; 1
     ee8:	96 14       	cp	r9, r6
     eea:	d8 f2       	brcs	.-74     	; 0xea2 <ks0108PutChar+0x138>
     eec:	80 91 61 00 	lds	r24, 0x0061
     ef0:	8f 3f       	cpi	r24, 0xFF	; 255
     ef2:	11 f4       	brne	.+4      	; 0xef8 <ks0108PutChar+0x18e>
     ef4:	80 e0       	ldi	r24, 0x00	; 0
     ef6:	01 c0       	rjmp	.+2      	; 0xefa <ks0108PutChar+0x190>
     ef8:	8f ef       	ldi	r24, 0xFF	; 255
     efa:	0e 94 40 06 	call	0xc80	; 0xc80 <ks0108WriteData>
     efe:	60 91 63 00 	lds	r22, 0x0063
     f02:	68 5f       	subi	r22, 0xF8	; 248
     f04:	85 2d       	mov	r24, r5
     f06:	0e 94 d9 05 	call	0xbb2	; 0xbb2 <ks0108GotoXY>
     f0a:	73 94       	inc	r7
     f0c:	86 0c       	add	r8, r6
     f0e:	88 e0       	ldi	r24, 0x08	; 8
     f10:	90 e0       	ldi	r25, 0x00	; 0
     f12:	a8 0e       	add	r10, r24
     f14:	b9 1e       	adc	r11, r25
     f16:	08 5f       	subi	r16, 0xF8	; 248
     f18:	1f 4f       	sbci	r17, 0xFF	; 255
     f1a:	73 14       	cp	r7, r3
     f1c:	08 f4       	brcc	.+2      	; 0xf20 <ks0108PutChar+0x1b6>
     f1e:	bb cf       	rjmp	.-138    	; 0xe96 <ks0108PutChar+0x12c>
     f20:	53 94       	inc	r5
     f22:	85 2d       	mov	r24, r5
     f24:	86 0d       	add	r24, r6
     f26:	62 2d       	mov	r22, r2
     f28:	0e 94 d9 05 	call	0xbb2	; 0xbb2 <ks0108GotoXY>
     f2c:	20 e0       	ldi	r18, 0x00	; 0
     f2e:	30 e0       	ldi	r19, 0x00	; 0
     f30:	02 c0       	rjmp	.+4      	; 0xf36 <ks0108PutChar+0x1cc>
     f32:	21 e0       	ldi	r18, 0x01	; 1
     f34:	30 e0       	ldi	r19, 0x00	; 0
     f36:	c9 01       	movw	r24, r18
     f38:	df 91       	pop	r29
     f3a:	cf 91       	pop	r28
     f3c:	1f 91       	pop	r17
     f3e:	0f 91       	pop	r16
     f40:	ff 90       	pop	r15
     f42:	ef 90       	pop	r14
     f44:	df 90       	pop	r13
     f46:	cf 90       	pop	r12
     f48:	bf 90       	pop	r11
     f4a:	af 90       	pop	r10
     f4c:	9f 90       	pop	r9
     f4e:	8f 90       	pop	r8
     f50:	7f 90       	pop	r7
     f52:	6f 90       	pop	r6
     f54:	5f 90       	pop	r5
     f56:	4f 90       	pop	r4
     f58:	3f 90       	pop	r3
     f5a:	2f 90       	pop	r2
     f5c:	08 95       	ret

00000f5e <ks0108Puts_P>:
     f5e:	0f 93       	push	r16
     f60:	1f 93       	push	r17
     f62:	cf 93       	push	r28
     f64:	df 93       	push	r29
     f66:	ec 01       	movw	r28, r24
     f68:	00 91 62 00 	lds	r16, 0x0062
     f6c:	17 c0       	rjmp	.+46     	; 0xf9c <ks0108Puts_P+0x3e>
     f6e:	8a 30       	cpi	r24, 0x0A	; 10
     f70:	91 f4       	brne	.+36     	; 0xf96 <ks0108Puts_P+0x38>
     f72:	10 91 63 00 	lds	r17, 0x0063
     f76:	80 91 67 00 	lds	r24, 0x0067
     f7a:	90 91 68 00 	lds	r25, 0x0068
     f7e:	e0 91 65 00 	lds	r30, 0x0065
     f82:	f0 91 66 00 	lds	r31, 0x0066
     f86:	03 96       	adiw	r24, 0x03	; 3
     f88:	09 95       	icall
     f8a:	18 0f       	add	r17, r24
     f8c:	80 2f       	mov	r24, r16
     f8e:	61 2f       	mov	r22, r17
     f90:	0e 94 d9 05 	call	0xbb2	; 0xbb2 <ks0108GotoXY>
     f94:	02 c0       	rjmp	.+4      	; 0xf9a <ks0108Puts_P+0x3c>
     f96:	0e 94 b5 06 	call	0xd6a	; 0xd6a <ks0108PutChar>
     f9a:	21 96       	adiw	r28, 0x01	; 1
     f9c:	fe 01       	movw	r30, r28
     f9e:	84 91       	lpm	r24, Z+
     fa0:	88 23       	and	r24, r24
     fa2:	29 f7       	brne	.-54     	; 0xf6e <ks0108Puts_P+0x10>
     fa4:	df 91       	pop	r29
     fa6:	cf 91       	pop	r28
     fa8:	1f 91       	pop	r17
     faa:	0f 91       	pop	r16
     fac:	08 95       	ret

00000fae <ks0108Puts>:
     fae:	0f 93       	push	r16
     fb0:	1f 93       	push	r17
     fb2:	cf 93       	push	r28
     fb4:	df 93       	push	r29
     fb6:	ec 01       	movw	r28, r24
     fb8:	00 91 62 00 	lds	r16, 0x0062
     fbc:	17 c0       	rjmp	.+46     	; 0xfec <ks0108Puts+0x3e>
     fbe:	8a 30       	cpi	r24, 0x0A	; 10
     fc0:	91 f4       	brne	.+36     	; 0xfe6 <ks0108Puts+0x38>
     fc2:	10 91 63 00 	lds	r17, 0x0063
     fc6:	80 91 67 00 	lds	r24, 0x0067
     fca:	90 91 68 00 	lds	r25, 0x0068
     fce:	e0 91 65 00 	lds	r30, 0x0065
     fd2:	f0 91 66 00 	lds	r31, 0x0066
     fd6:	03 96       	adiw	r24, 0x03	; 3
     fd8:	09 95       	icall
     fda:	18 0f       	add	r17, r24
     fdc:	80 2f       	mov	r24, r16
     fde:	61 2f       	mov	r22, r17
     fe0:	0e 94 d9 05 	call	0xbb2	; 0xbb2 <ks0108GotoXY>
     fe4:	02 c0       	rjmp	.+4      	; 0xfea <ks0108Puts+0x3c>
     fe6:	0e 94 b5 06 	call	0xd6a	; 0xd6a <ks0108PutChar>
     fea:	21 96       	adiw	r28, 0x01	; 1
     fec:	88 81       	ld	r24, Y
     fee:	88 23       	and	r24, r24
     ff0:	31 f7       	brne	.-52     	; 0xfbe <ks0108Puts+0x10>
     ff2:	df 91       	pop	r29
     ff4:	cf 91       	pop	r28
     ff6:	1f 91       	pop	r17
     ff8:	0f 91       	pop	r16
     ffa:	08 95       	ret

00000ffc <ks0108SetDot>:
     ffc:	0f 93       	push	r16
     ffe:	1f 93       	push	r17
    1000:	16 2f       	mov	r17, r22
    1002:	04 2f       	mov	r16, r20
    1004:	68 7f       	andi	r22, 0xF8	; 248
    1006:	0e 94 d9 05 	call	0xbb2	; 0xbb2 <ks0108GotoXY>
    100a:	0e 94 39 06 	call	0xc72	; 0xc72 <ks0108ReadData>
    100e:	48 2f       	mov	r20, r24
    1010:	21 2f       	mov	r18, r17
    1012:	30 e0       	ldi	r19, 0x00	; 0
    1014:	0f 3f       	cpi	r16, 0xFF	; 255
    1016:	59 f4       	brne	.+22     	; 0x102e <ks0108SetDot+0x32>
    1018:	27 70       	andi	r18, 0x07	; 7
    101a:	30 70       	andi	r19, 0x00	; 0
    101c:	81 e0       	ldi	r24, 0x01	; 1
    101e:	90 e0       	ldi	r25, 0x00	; 0
    1020:	02 c0       	rjmp	.+4      	; 0x1026 <ks0108SetDot+0x2a>
    1022:	88 0f       	add	r24, r24
    1024:	99 1f       	adc	r25, r25
    1026:	2a 95       	dec	r18
    1028:	e2 f7       	brpl	.-8      	; 0x1022 <ks0108SetDot+0x26>
    102a:	84 2b       	or	r24, r20
    102c:	0b c0       	rjmp	.+22     	; 0x1044 <ks0108SetDot+0x48>
    102e:	27 70       	andi	r18, 0x07	; 7
    1030:	30 70       	andi	r19, 0x00	; 0
    1032:	81 e0       	ldi	r24, 0x01	; 1
    1034:	90 e0       	ldi	r25, 0x00	; 0
    1036:	02 c0       	rjmp	.+4      	; 0x103c <ks0108SetDot+0x40>
    1038:	88 0f       	add	r24, r24
    103a:	99 1f       	adc	r25, r25
    103c:	2a 95       	dec	r18
    103e:	e2 f7       	brpl	.-8      	; 0x1038 <ks0108SetDot+0x3c>
    1040:	80 95       	com	r24
    1042:	84 23       	and	r24, r20
    1044:	0e 94 40 06 	call	0xc80	; 0xc80 <ks0108WriteData>
    1048:	1f 91       	pop	r17
    104a:	0f 91       	pop	r16
    104c:	08 95       	ret

0000104e <ks0108InvertRect>:
    104e:	af 92       	push	r10
    1050:	bf 92       	push	r11
    1052:	cf 92       	push	r12
    1054:	df 92       	push	r13
    1056:	ef 92       	push	r14
    1058:	ff 92       	push	r15
    105a:	0f 93       	push	r16
    105c:	1f 93       	push	r17
    105e:	cf 93       	push	r28
    1060:	df 93       	push	r29
    1062:	b8 2e       	mov	r11, r24
    1064:	a4 2e       	mov	r10, r20
    1066:	e2 2e       	mov	r14, r18
    1068:	e3 94       	inc	r14
    106a:	46 2f       	mov	r20, r22
    106c:	47 70       	andi	r20, 0x07	; 7
    106e:	f6 2e       	mov	r15, r22
    1070:	f4 1a       	sub	r15, r20
    1072:	ce 2d       	mov	r28, r14
    1074:	d0 e0       	ldi	r29, 0x00	; 0
    1076:	64 2f       	mov	r22, r20
    1078:	70 e0       	ldi	r23, 0x00	; 0
    107a:	28 e0       	ldi	r18, 0x08	; 8
    107c:	30 e0       	ldi	r19, 0x00	; 0
    107e:	c9 01       	movw	r24, r18
    1080:	86 1b       	sub	r24, r22
    1082:	97 0b       	sbc	r25, r23
    1084:	c8 17       	cp	r28, r24
    1086:	d9 07       	cpc	r29, r25
    1088:	5c f4       	brge	.+22     	; 0x10a0 <ks0108InvertRect+0x52>
    108a:	2c 1b       	sub	r18, r28
    108c:	3d 0b       	sbc	r19, r29
    108e:	8f ef       	ldi	r24, 0xFF	; 255
    1090:	90 e0       	ldi	r25, 0x00	; 0
    1092:	02 c0       	rjmp	.+4      	; 0x1098 <ks0108InvertRect+0x4a>
    1094:	95 95       	asr	r25
    1096:	87 95       	ror	r24
    1098:	2a 95       	dec	r18
    109a:	e2 f7       	brpl	.-8      	; 0x1094 <ks0108InvertRect+0x46>
    109c:	0e 2d       	mov	r16, r14
    109e:	03 c0       	rjmp	.+6      	; 0x10a6 <ks0108InvertRect+0x58>
    10a0:	08 e0       	ldi	r16, 0x08	; 8
    10a2:	04 1b       	sub	r16, r20
    10a4:	8f ef       	ldi	r24, 0xFF	; 255
    10a6:	90 e0       	ldi	r25, 0x00	; 0
    10a8:	02 c0       	rjmp	.+4      	; 0x10ae <ks0108InvertRect+0x60>
    10aa:	88 0f       	add	r24, r24
    10ac:	99 1f       	adc	r25, r25
    10ae:	6a 95       	dec	r22
    10b0:	e2 f7       	brpl	.-8      	; 0x10aa <ks0108InvertRect+0x5c>
    10b2:	d8 2e       	mov	r13, r24
    10b4:	8b 2d       	mov	r24, r11
    10b6:	6f 2d       	mov	r22, r15
    10b8:	0e 94 d9 05 	call	0xbb2	; 0xbb2 <ks0108GotoXY>
    10bc:	10 e0       	ldi	r17, 0x00	; 0
    10be:	cd 2c       	mov	r12, r13
    10c0:	c0 94       	com	r12
    10c2:	0e 94 39 06 	call	0xc72	; 0xc72 <ks0108ReadData>
    10c6:	98 2f       	mov	r25, r24
    10c8:	8c 2d       	mov	r24, r12
    10ca:	89 23       	and	r24, r25
    10cc:	90 95       	com	r25
    10ce:	9d 21       	and	r25, r13
    10d0:	89 2b       	or	r24, r25
    10d2:	0e 94 40 06 	call	0xc80	; 0xc80 <ks0108WriteData>
    10d6:	1f 5f       	subi	r17, 0xFF	; 255
    10d8:	a1 16       	cp	r10, r17
    10da:	98 f7       	brcc	.-26     	; 0x10c2 <ks0108InvertRect+0x74>
    10dc:	10 c0       	rjmp	.+32     	; 0x10fe <ks0108InvertRect+0xb0>
    10de:	88 e0       	ldi	r24, 0x08	; 8
    10e0:	f8 0e       	add	r15, r24
    10e2:	8b 2d       	mov	r24, r11
    10e4:	6f 2d       	mov	r22, r15
    10e6:	0e 94 d9 05 	call	0xbb2	; 0xbb2 <ks0108GotoXY>
    10ea:	10 e0       	ldi	r17, 0x00	; 0
    10ec:	0e 94 39 06 	call	0xc72	; 0xc72 <ks0108ReadData>
    10f0:	80 95       	com	r24
    10f2:	0e 94 40 06 	call	0xc80	; 0xc80 <ks0108WriteData>
    10f6:	1f 5f       	subi	r17, 0xFF	; 255
    10f8:	a1 16       	cp	r10, r17
    10fa:	c0 f7       	brcc	.-16     	; 0x10ec <ks0108InvertRect+0x9e>
    10fc:	08 5f       	subi	r16, 0xF8	; 248
    10fe:	20 2f       	mov	r18, r16
    1100:	30 e0       	ldi	r19, 0x00	; 0
    1102:	c9 01       	movw	r24, r18
    1104:	07 96       	adiw	r24, 0x07	; 7
    1106:	8c 17       	cp	r24, r28
    1108:	9d 07       	cpc	r25, r29
    110a:	4c f3       	brlt	.-46     	; 0x10de <ks0108InvertRect+0x90>
    110c:	0e 15       	cp	r16, r14
    110e:	08 f5       	brcc	.+66     	; 0x1152 <ks0108InvertRect+0x104>
    1110:	c2 1b       	sub	r28, r18
    1112:	d3 0b       	sbc	r29, r19
    1114:	8f ef       	ldi	r24, 0xFF	; 255
    1116:	90 e0       	ldi	r25, 0x00	; 0
    1118:	02 c0       	rjmp	.+4      	; 0x111e <ks0108InvertRect+0xd0>
    111a:	88 0f       	add	r24, r24
    111c:	99 1f       	adc	r25, r25
    111e:	ca 95       	dec	r28
    1120:	e2 f7       	brpl	.-8      	; 0x111a <ks0108InvertRect+0xcc>
    1122:	e8 2e       	mov	r14, r24
    1124:	e0 94       	com	r14
    1126:	88 e0       	ldi	r24, 0x08	; 8
    1128:	f8 0e       	add	r15, r24
    112a:	8b 2d       	mov	r24, r11
    112c:	6f 2d       	mov	r22, r15
    112e:	0e 94 d9 05 	call	0xbb2	; 0xbb2 <ks0108GotoXY>
    1132:	10 e0       	ldi	r17, 0x00	; 0
    1134:	0e 2d       	mov	r16, r14
    1136:	00 95       	com	r16
    1138:	0e 94 39 06 	call	0xc72	; 0xc72 <ks0108ReadData>
    113c:	98 2f       	mov	r25, r24
    113e:	80 2f       	mov	r24, r16
    1140:	89 23       	and	r24, r25
    1142:	90 95       	com	r25
    1144:	9e 21       	and	r25, r14
    1146:	89 2b       	or	r24, r25
    1148:	0e 94 40 06 	call	0xc80	; 0xc80 <ks0108WriteData>
    114c:	1f 5f       	subi	r17, 0xFF	; 255
    114e:	a1 16       	cp	r10, r17
    1150:	98 f7       	brcc	.-26     	; 0x1138 <ks0108InvertRect+0xea>
    1152:	df 91       	pop	r29
    1154:	cf 91       	pop	r28
    1156:	1f 91       	pop	r17
    1158:	0f 91       	pop	r16
    115a:	ff 90       	pop	r15
    115c:	ef 90       	pop	r14
    115e:	df 90       	pop	r13
    1160:	cf 90       	pop	r12
    1162:	bf 90       	pop	r11
    1164:	af 90       	pop	r10
    1166:	08 95       	ret

00001168 <ks0108SetInverted>:
    1168:	1f 93       	push	r17
    116a:	18 2f       	mov	r17, r24
    116c:	80 91 60 00 	lds	r24, 0x0060
    1170:	81 17       	cp	r24, r17
    1172:	41 f0       	breq	.+16     	; 0x1184 <ks0108SetInverted+0x1c>
    1174:	80 e0       	ldi	r24, 0x00	; 0
    1176:	60 e0       	ldi	r22, 0x00	; 0
    1178:	4f e7       	ldi	r20, 0x7F	; 127
    117a:	2f e3       	ldi	r18, 0x3F	; 63
    117c:	0e 94 27 08 	call	0x104e	; 0x104e <ks0108InvertRect>
    1180:	10 93 60 00 	sts	0x0060, r17
    1184:	1f 91       	pop	r17
    1186:	08 95       	ret

00001188 <ks0108FillRect>:
    1188:	9f 92       	push	r9
    118a:	af 92       	push	r10
    118c:	bf 92       	push	r11
    118e:	cf 92       	push	r12
    1190:	df 92       	push	r13
    1192:	ef 92       	push	r14
    1194:	ff 92       	push	r15
    1196:	0f 93       	push	r16
    1198:	1f 93       	push	r17
    119a:	cf 93       	push	r28
    119c:	df 93       	push	r29
    119e:	b8 2e       	mov	r11, r24
    11a0:	94 2e       	mov	r9, r20
    11a2:	e2 2e       	mov	r14, r18
    11a4:	a0 2e       	mov	r10, r16
    11a6:	e3 94       	inc	r14
    11a8:	46 2f       	mov	r20, r22
    11aa:	47 70       	andi	r20, 0x07	; 7
    11ac:	f6 2e       	mov	r15, r22
    11ae:	f4 1a       	sub	r15, r20
    11b0:	ce 2d       	mov	r28, r14
    11b2:	d0 e0       	ldi	r29, 0x00	; 0
    11b4:	64 2f       	mov	r22, r20
    11b6:	70 e0       	ldi	r23, 0x00	; 0
    11b8:	28 e0       	ldi	r18, 0x08	; 8
    11ba:	30 e0       	ldi	r19, 0x00	; 0
    11bc:	c9 01       	movw	r24, r18
    11be:	86 1b       	sub	r24, r22
    11c0:	97 0b       	sbc	r25, r23
    11c2:	c8 17       	cp	r28, r24
    11c4:	d9 07       	cpc	r29, r25
    11c6:	5c f4       	brge	.+22     	; 0x11de <ks0108FillRect+0x56>
    11c8:	2c 1b       	sub	r18, r28
    11ca:	3d 0b       	sbc	r19, r29
    11cc:	8f ef       	ldi	r24, 0xFF	; 255
    11ce:	90 e0       	ldi	r25, 0x00	; 0
    11d0:	02 c0       	rjmp	.+4      	; 0x11d6 <ks0108FillRect+0x4e>
    11d2:	95 95       	asr	r25
    11d4:	87 95       	ror	r24
    11d6:	2a 95       	dec	r18
    11d8:	e2 f7       	brpl	.-8      	; 0x11d2 <ks0108FillRect+0x4a>
    11da:	0e 2d       	mov	r16, r14
    11dc:	03 c0       	rjmp	.+6      	; 0x11e4 <ks0108FillRect+0x5c>
    11de:	08 e0       	ldi	r16, 0x08	; 8
    11e0:	04 1b       	sub	r16, r20
    11e2:	8f ef       	ldi	r24, 0xFF	; 255
    11e4:	90 e0       	ldi	r25, 0x00	; 0
    11e6:	02 c0       	rjmp	.+4      	; 0x11ec <ks0108FillRect+0x64>
    11e8:	88 0f       	add	r24, r24
    11ea:	99 1f       	adc	r25, r25
    11ec:	6a 95       	dec	r22
    11ee:	e2 f7       	brpl	.-8      	; 0x11e8 <ks0108FillRect+0x60>
    11f0:	d8 2e       	mov	r13, r24
    11f2:	8b 2d       	mov	r24, r11
    11f4:	6f 2d       	mov	r22, r15
    11f6:	0e 94 d9 05 	call	0xbb2	; 0xbb2 <ks0108GotoXY>
    11fa:	10 e0       	ldi	r17, 0x00	; 0
    11fc:	cd 2c       	mov	r12, r13
    11fe:	c0 94       	com	r12
    1200:	0e 94 39 06 	call	0xc72	; 0xc72 <ks0108ReadData>
    1204:	9f ef       	ldi	r25, 0xFF	; 255
    1206:	a9 16       	cp	r10, r25
    1208:	11 f4       	brne	.+4      	; 0x120e <ks0108FillRect+0x86>
    120a:	8d 29       	or	r24, r13
    120c:	01 c0       	rjmp	.+2      	; 0x1210 <ks0108FillRect+0x88>
    120e:	8c 21       	and	r24, r12
    1210:	0e 94 40 06 	call	0xc80	; 0xc80 <ks0108WriteData>
    1214:	1f 5f       	subi	r17, 0xFF	; 255
    1216:	91 16       	cp	r9, r17
    1218:	98 f7       	brcc	.-26     	; 0x1200 <ks0108FillRect+0x78>
    121a:	0e c0       	rjmp	.+28     	; 0x1238 <ks0108FillRect+0xb0>
    121c:	88 e0       	ldi	r24, 0x08	; 8
    121e:	f8 0e       	add	r15, r24
    1220:	8b 2d       	mov	r24, r11
    1222:	6f 2d       	mov	r22, r15
    1224:	0e 94 d9 05 	call	0xbb2	; 0xbb2 <ks0108GotoXY>
    1228:	10 e0       	ldi	r17, 0x00	; 0
    122a:	8a 2d       	mov	r24, r10
    122c:	0e 94 40 06 	call	0xc80	; 0xc80 <ks0108WriteData>
    1230:	1f 5f       	subi	r17, 0xFF	; 255
    1232:	91 16       	cp	r9, r17
    1234:	d0 f7       	brcc	.-12     	; 0x122a <ks0108FillRect+0xa2>
    1236:	08 5f       	subi	r16, 0xF8	; 248
    1238:	20 2f       	mov	r18, r16
    123a:	30 e0       	ldi	r19, 0x00	; 0
    123c:	c9 01       	movw	r24, r18
    123e:	07 96       	adiw	r24, 0x07	; 7
    1240:	8c 17       	cp	r24, r28
    1242:	9d 07       	cpc	r25, r29
    1244:	5c f3       	brlt	.-42     	; 0x121c <ks0108FillRect+0x94>
    1246:	0e 15       	cp	r16, r14
    1248:	08 f5       	brcc	.+66     	; 0x128c <ks0108FillRect+0x104>
    124a:	c2 1b       	sub	r28, r18
    124c:	d3 0b       	sbc	r29, r19
    124e:	8f ef       	ldi	r24, 0xFF	; 255
    1250:	90 e0       	ldi	r25, 0x00	; 0
    1252:	02 c0       	rjmp	.+4      	; 0x1258 <ks0108FillRect+0xd0>
    1254:	88 0f       	add	r24, r24
    1256:	99 1f       	adc	r25, r25
    1258:	ca 95       	dec	r28
    125a:	e2 f7       	brpl	.-8      	; 0x1254 <ks0108FillRect+0xcc>
    125c:	e8 2e       	mov	r14, r24
    125e:	e0 94       	com	r14
    1260:	98 e0       	ldi	r25, 0x08	; 8
    1262:	f9 0e       	add	r15, r25
    1264:	8b 2d       	mov	r24, r11
    1266:	6f 2d       	mov	r22, r15
    1268:	0e 94 d9 05 	call	0xbb2	; 0xbb2 <ks0108GotoXY>
    126c:	10 e0       	ldi	r17, 0x00	; 0
    126e:	fe 2c       	mov	r15, r14
    1270:	f0 94       	com	r15
    1272:	0e 94 39 06 	call	0xc72	; 0xc72 <ks0108ReadData>
    1276:	9f ef       	ldi	r25, 0xFF	; 255
    1278:	a9 16       	cp	r10, r25
    127a:	11 f4       	brne	.+4      	; 0x1280 <ks0108FillRect+0xf8>
    127c:	8e 29       	or	r24, r14
    127e:	01 c0       	rjmp	.+2      	; 0x1282 <ks0108FillRect+0xfa>
    1280:	8f 21       	and	r24, r15
    1282:	0e 94 40 06 	call	0xc80	; 0xc80 <ks0108WriteData>
    1286:	1f 5f       	subi	r17, 0xFF	; 255
    1288:	91 16       	cp	r9, r17
    128a:	98 f7       	brcc	.-26     	; 0x1272 <ks0108FillRect+0xea>
    128c:	df 91       	pop	r29
    128e:	cf 91       	pop	r28
    1290:	1f 91       	pop	r17
    1292:	0f 91       	pop	r16
    1294:	ff 90       	pop	r15
    1296:	ef 90       	pop	r14
    1298:	df 90       	pop	r13
    129a:	cf 90       	pop	r12
    129c:	bf 90       	pop	r11
    129e:	af 90       	pop	r10
    12a0:	9f 90       	pop	r9
    12a2:	08 95       	ret

000012a4 <ks0108Init>:
    12a4:	0f 93       	push	r16
    12a6:	10 92 62 00 	sts	0x0062, r1
    12aa:	10 92 63 00 	sts	0x0063, r1
    12ae:	10 92 64 00 	sts	0x0064, r1
    12b2:	80 93 60 00 	sts	0x0060, r24
    12b6:	8f ef       	ldi	r24, 0xFF	; 255
    12b8:	84 bb       	out	0x14, r24	; 20
    12ba:	8f e3       	ldi	r24, 0x3F	; 63
    12bc:	60 e0       	ldi	r22, 0x00	; 0
    12be:	0e 94 c6 05 	call	0xb8c	; 0xb8c <ks0108WriteCommand>
    12c2:	8f e3       	ldi	r24, 0x3F	; 63
    12c4:	61 e0       	ldi	r22, 0x01	; 1
    12c6:	0e 94 c6 05 	call	0xb8c	; 0xb8c <ks0108WriteCommand>
    12ca:	80 ec       	ldi	r24, 0xC0	; 192
    12cc:	60 e0       	ldi	r22, 0x00	; 0
    12ce:	0e 94 c6 05 	call	0xb8c	; 0xb8c <ks0108WriteCommand>
    12d2:	80 ec       	ldi	r24, 0xC0	; 192
    12d4:	61 e0       	ldi	r22, 0x01	; 1
    12d6:	0e 94 c6 05 	call	0xb8c	; 0xb8c <ks0108WriteCommand>
    12da:	80 e0       	ldi	r24, 0x00	; 0
    12dc:	60 e0       	ldi	r22, 0x00	; 0
    12de:	4f e7       	ldi	r20, 0x7F	; 127
    12e0:	2f e3       	ldi	r18, 0x3F	; 63
    12e2:	00 e0       	ldi	r16, 0x00	; 0
    12e4:	0e 94 c4 08 	call	0x1188	; 0x1188 <ks0108FillRect>
    12e8:	80 e0       	ldi	r24, 0x00	; 0
    12ea:	60 e0       	ldi	r22, 0x00	; 0
    12ec:	0e 94 d9 05 	call	0xbb2	; 0xbb2 <ks0108GotoXY>
    12f0:	0f 91       	pop	r16
    12f2:	08 95       	ret

000012f4 <ks0108DrawRoundRect>:
    12f4:	2f 92       	push	r2
    12f6:	3f 92       	push	r3
    12f8:	4f 92       	push	r4
    12fa:	5f 92       	push	r5
    12fc:	6f 92       	push	r6
    12fe:	7f 92       	push	r7
    1300:	8f 92       	push	r8
    1302:	9f 92       	push	r9
    1304:	af 92       	push	r10
    1306:	bf 92       	push	r11
    1308:	cf 92       	push	r12
    130a:	df 92       	push	r13
    130c:	ef 92       	push	r14
    130e:	ff 92       	push	r15
    1310:	0f 93       	push	r16
    1312:	1f 93       	push	r17
    1314:	df 93       	push	r29
    1316:	cf 93       	push	r28
    1318:	cd b7       	in	r28, 0x3d	; 61
    131a:	de b7       	in	r29, 0x3e	; 62
    131c:	2c 97       	sbiw	r28, 0x0c	; 12
    131e:	0f b6       	in	r0, 0x3f	; 63
    1320:	f8 94       	cli
    1322:	de bf       	out	0x3e, r29	; 62
    1324:	0f be       	out	0x3f, r0	; 63
    1326:	cd bf       	out	0x3d, r28	; 61
    1328:	8f 83       	std	Y+7, r24	; 0x07
    132a:	68 87       	std	Y+8, r22	; 0x08
    132c:	49 87       	std	Y+9, r20	; 0x09
    132e:	2a 87       	std	Y+10, r18	; 0x0a
    1330:	c0 2e       	mov	r12, r16
    1332:	dd 24       	eor	r13, r13
    1334:	c6 01       	movw	r24, r12
    1336:	88 0f       	add	r24, r24
    1338:	99 1f       	adc	r25, r25
    133a:	22 27       	eor	r18, r18
    133c:	33 27       	eor	r19, r19
    133e:	28 1b       	sub	r18, r24
    1340:	39 0b       	sbc	r19, r25
    1342:	3e 83       	std	Y+6, r19	; 0x06
    1344:	2d 83       	std	Y+5, r18	; 0x05
    1346:	2d 5f       	subi	r18, 0xFD	; 253
    1348:	3f 4f       	sbci	r19, 0xFF	; 255
    134a:	3c 87       	std	Y+12, r19	; 0x0c
    134c:	2b 87       	std	Y+11, r18	; 0x0b
    134e:	3f 80       	ldd	r3, Y+7	; 0x07
    1350:	30 0e       	add	r3, r16
    1352:	26 2e       	mov	r2, r22
    1354:	20 0e       	add	r2, r16
    1356:	34 2f       	mov	r19, r20
    1358:	8f 81       	ldd	r24, Y+7	; 0x07
    135a:	38 0f       	add	r19, r24
    135c:	3b 83       	std	Y+3, r19	; 0x03
    135e:	30 1b       	sub	r19, r16
    1360:	3c 83       	std	Y+4, r19	; 0x04
    1362:	9a 85       	ldd	r25, Y+10	; 0x0a
    1364:	96 0f       	add	r25, r22
    1366:	99 83       	std	Y+1, r25	; 0x01
    1368:	90 1b       	sub	r25, r16
    136a:	9a 83       	std	Y+2, r25	; 0x02
    136c:	43 2c       	mov	r4, r3
    136e:	52 2c       	mov	r5, r2
    1370:	63 2e       	mov	r6, r19
    1372:	79 2e       	mov	r7, r25
    1374:	aa 24       	eor	r10, r10
    1376:	bb 24       	eor	r11, r11
    1378:	88 24       	eor	r8, r8
    137a:	99 24       	eor	r9, r9
    137c:	1c 2d       	mov	r17, r12
    137e:	02 2d       	mov	r16, r2
    1380:	0c 19       	sub	r16, r12
    1382:	84 2d       	mov	r24, r4
    1384:	60 2f       	mov	r22, r16
    1386:	4e 2d       	mov	r20, r14
    1388:	0e 94 fe 07 	call	0xffc	; 0xffc <ks0108SetDot>
    138c:	f3 2c       	mov	r15, r3
    138e:	fc 18       	sub	r15, r12
    1390:	8f 2d       	mov	r24, r15
    1392:	65 2d       	mov	r22, r5
    1394:	4e 2d       	mov	r20, r14
    1396:	0e 94 fe 07 	call	0xffc	; 0xffc <ks0108SetDot>
    139a:	86 2d       	mov	r24, r6
    139c:	60 2f       	mov	r22, r16
    139e:	4e 2d       	mov	r20, r14
    13a0:	0e 94 fe 07 	call	0xffc	; 0xffc <ks0108SetDot>
    13a4:	0c 81       	ldd	r16, Y+4	; 0x04
    13a6:	0c 0d       	add	r16, r12
    13a8:	80 2f       	mov	r24, r16
    13aa:	65 2d       	mov	r22, r5
    13ac:	4e 2d       	mov	r20, r14
    13ae:	0e 94 fe 07 	call	0xffc	; 0xffc <ks0108SetDot>
    13b2:	fa 81       	ldd	r31, Y+2	; 0x02
    13b4:	1f 0f       	add	r17, r31
    13b6:	86 2d       	mov	r24, r6
    13b8:	61 2f       	mov	r22, r17
    13ba:	4e 2d       	mov	r20, r14
    13bc:	0e 94 fe 07 	call	0xffc	; 0xffc <ks0108SetDot>
    13c0:	80 2f       	mov	r24, r16
    13c2:	67 2d       	mov	r22, r7
    13c4:	4e 2d       	mov	r20, r14
    13c6:	0e 94 fe 07 	call	0xffc	; 0xffc <ks0108SetDot>
    13ca:	84 2d       	mov	r24, r4
    13cc:	61 2f       	mov	r22, r17
    13ce:	4e 2d       	mov	r20, r14
    13d0:	0e 94 fe 07 	call	0xffc	; 0xffc <ks0108SetDot>
    13d4:	8f 2d       	mov	r24, r15
    13d6:	67 2d       	mov	r22, r7
    13d8:	4e 2d       	mov	r20, r14
    13da:	0e 94 fe 07 	call	0xffc	; 0xffc <ks0108SetDot>
    13de:	2b 85       	ldd	r18, Y+11	; 0x0b
    13e0:	3c 85       	ldd	r19, Y+12	; 0x0c
    13e2:	37 ff       	sbrs	r19, 7
    13e4:	07 c0       	rjmp	.+14     	; 0x13f4 <ks0108DrawRoundRect+0x100>
    13e6:	2a 5f       	subi	r18, 0xFA	; 250
    13e8:	3f 4f       	sbci	r19, 0xFF	; 255
    13ea:	28 0d       	add	r18, r8
    13ec:	39 1d       	adc	r19, r9
    13ee:	3c 87       	std	Y+12, r19	; 0x0c
    13f0:	2b 87       	std	Y+11, r18	; 0x0b
    13f2:	15 c0       	rjmp	.+42     	; 0x141e <ks0108DrawRoundRect+0x12a>
    13f4:	8b 85       	ldd	r24, Y+11	; 0x0b
    13f6:	9c 85       	ldd	r25, Y+12	; 0x0c
    13f8:	0a 96       	adiw	r24, 0x0a	; 10
    13fa:	9c 87       	std	Y+12, r25	; 0x0c
    13fc:	8b 87       	std	Y+11, r24	; 0x0b
    13fe:	c5 01       	movw	r24, r10
    1400:	8c 19       	sub	r24, r12
    1402:	9d 09       	sbc	r25, r13
    1404:	88 0f       	add	r24, r24
    1406:	99 1f       	adc	r25, r25
    1408:	88 0f       	add	r24, r24
    140a:	99 1f       	adc	r25, r25
    140c:	eb 85       	ldd	r30, Y+11	; 0x0b
    140e:	fc 85       	ldd	r31, Y+12	; 0x0c
    1410:	e8 0f       	add	r30, r24
    1412:	f9 1f       	adc	r31, r25
    1414:	fc 87       	std	Y+12, r31	; 0x0c
    1416:	eb 87       	std	Y+11, r30	; 0x0b
    1418:	08 94       	sec
    141a:	c1 08       	sbc	r12, r1
    141c:	d1 08       	sbc	r13, r1
    141e:	08 94       	sec
    1420:	a1 1c       	adc	r10, r1
    1422:	b1 1c       	adc	r11, r1
    1424:	4a 94       	dec	r4
    1426:	5a 94       	dec	r5
    1428:	63 94       	inc	r6
    142a:	73 94       	inc	r7
    142c:	24 e0       	ldi	r18, 0x04	; 4
    142e:	30 e0       	ldi	r19, 0x00	; 0
    1430:	82 0e       	add	r8, r18
    1432:	93 1e       	adc	r9, r19
    1434:	ca 14       	cp	r12, r10
    1436:	db 04       	cpc	r13, r11
    1438:	0c f0       	brlt	.+2      	; 0x143c <ks0108DrawRoundRect+0x148>
    143a:	a0 cf       	rjmp	.-192    	; 0x137c <ks0108DrawRoundRect+0x88>
    143c:	1d 81       	ldd	r17, Y+5	; 0x05
    143e:	f9 84       	ldd	r15, Y+9	; 0x09
    1440:	f1 0e       	add	r15, r17
    1442:	83 2d       	mov	r24, r3
    1444:	68 85       	ldd	r22, Y+8	; 0x08
    1446:	4f 2d       	mov	r20, r15
    1448:	20 e0       	ldi	r18, 0x00	; 0
    144a:	0e 2d       	mov	r16, r14
    144c:	0e 94 c4 08 	call	0x1188	; 0x1188 <ks0108FillRect>
    1450:	83 2d       	mov	r24, r3
    1452:	69 81       	ldd	r22, Y+1	; 0x01
    1454:	4f 2d       	mov	r20, r15
    1456:	20 e0       	ldi	r18, 0x00	; 0
    1458:	0e 94 c4 08 	call	0x1188	; 0x1188 <ks0108FillRect>
    145c:	3a 85       	ldd	r19, Y+10	; 0x0a
    145e:	13 0f       	add	r17, r19
    1460:	8f 81       	ldd	r24, Y+7	; 0x07
    1462:	62 2d       	mov	r22, r2
    1464:	40 e0       	ldi	r20, 0x00	; 0
    1466:	21 2f       	mov	r18, r17
    1468:	0e 94 c4 08 	call	0x1188	; 0x1188 <ks0108FillRect>
    146c:	8b 81       	ldd	r24, Y+3	; 0x03
    146e:	62 2d       	mov	r22, r2
    1470:	40 e0       	ldi	r20, 0x00	; 0
    1472:	21 2f       	mov	r18, r17
    1474:	0e 94 c4 08 	call	0x1188	; 0x1188 <ks0108FillRect>
    1478:	2c 96       	adiw	r28, 0x0c	; 12
    147a:	0f b6       	in	r0, 0x3f	; 63
    147c:	f8 94       	cli
    147e:	de bf       	out	0x3e, r29	; 62
    1480:	0f be       	out	0x3f, r0	; 63
    1482:	cd bf       	out	0x3d, r28	; 61
    1484:	cf 91       	pop	r28
    1486:	df 91       	pop	r29
    1488:	1f 91       	pop	r17
    148a:	0f 91       	pop	r16
    148c:	ff 90       	pop	r15
    148e:	ef 90       	pop	r14
    1490:	df 90       	pop	r13
    1492:	cf 90       	pop	r12
    1494:	bf 90       	pop	r11
    1496:	af 90       	pop	r10
    1498:	9f 90       	pop	r9
    149a:	8f 90       	pop	r8
    149c:	7f 90       	pop	r7
    149e:	6f 90       	pop	r6
    14a0:	5f 90       	pop	r5
    14a2:	4f 90       	pop	r4
    14a4:	3f 90       	pop	r3
    14a6:	2f 90       	pop	r2
    14a8:	08 95       	ret

000014aa <ks0108DrawRect>:
    14aa:	cf 92       	push	r12
    14ac:	df 92       	push	r13
    14ae:	ef 92       	push	r14
    14b0:	ff 92       	push	r15
    14b2:	0f 93       	push	r16
    14b4:	1f 93       	push	r17
    14b6:	18 2f       	mov	r17, r24
    14b8:	f6 2e       	mov	r15, r22
    14ba:	d4 2e       	mov	r13, r20
    14bc:	c2 2e       	mov	r12, r18
    14be:	20 e0       	ldi	r18, 0x00	; 0
    14c0:	0e 94 c4 08 	call	0x1188	; 0x1188 <ks0108FillRect>
    14c4:	6c 2d       	mov	r22, r12
    14c6:	6f 0d       	add	r22, r15
    14c8:	81 2f       	mov	r24, r17
    14ca:	4d 2d       	mov	r20, r13
    14cc:	20 e0       	ldi	r18, 0x00	; 0
    14ce:	0e 94 c4 08 	call	0x1188	; 0x1188 <ks0108FillRect>
    14d2:	81 2f       	mov	r24, r17
    14d4:	6f 2d       	mov	r22, r15
    14d6:	40 e0       	ldi	r20, 0x00	; 0
    14d8:	2c 2d       	mov	r18, r12
    14da:	0e 94 c4 08 	call	0x1188	; 0x1188 <ks0108FillRect>
    14de:	8d 2d       	mov	r24, r13
    14e0:	81 0f       	add	r24, r17
    14e2:	6f 2d       	mov	r22, r15
    14e4:	40 e0       	ldi	r20, 0x00	; 0
    14e6:	2c 2d       	mov	r18, r12
    14e8:	0e 94 c4 08 	call	0x1188	; 0x1188 <ks0108FillRect>
    14ec:	1f 91       	pop	r17
    14ee:	0f 91       	pop	r16
    14f0:	ff 90       	pop	r15
    14f2:	ef 90       	pop	r14
    14f4:	df 90       	pop	r13
    14f6:	cf 90       	pop	r12
    14f8:	08 95       	ret

000014fa <ks0108DrawLine>:
    14fa:	4f 92       	push	r4
    14fc:	5f 92       	push	r5
    14fe:	6f 92       	push	r6
    1500:	7f 92       	push	r7
    1502:	8f 92       	push	r8
    1504:	9f 92       	push	r9
    1506:	af 92       	push	r10
    1508:	bf 92       	push	r11
    150a:	cf 92       	push	r12
    150c:	df 92       	push	r13
    150e:	ef 92       	push	r14
    1510:	ff 92       	push	r15
    1512:	0f 93       	push	r16
    1514:	1f 93       	push	r17
    1516:	cf 93       	push	r28
    1518:	df 93       	push	r29
    151a:	d8 2e       	mov	r13, r24
    151c:	c6 2e       	mov	r12, r22
    151e:	f4 2e       	mov	r15, r20
    1520:	e2 2e       	mov	r14, r18
    1522:	50 2e       	mov	r5, r16
    1524:	84 17       	cp	r24, r20
    1526:	51 f4       	brne	.+20     	; 0x153c <ks0108DrawLine+0x42>
    1528:	26 17       	cp	r18, r22
    152a:	10 f4       	brcc	.+4      	; 0x1530 <ks0108DrawLine+0x36>
    152c:	e6 2e       	mov	r14, r22
    152e:	c2 2e       	mov	r12, r18
    1530:	ec 18       	sub	r14, r12
    1532:	8d 2d       	mov	r24, r13
    1534:	6c 2d       	mov	r22, r12
    1536:	40 e0       	ldi	r20, 0x00	; 0
    1538:	2e 2d       	mov	r18, r14
    153a:	0b c0       	rjmp	.+22     	; 0x1552 <ks0108DrawLine+0x58>
    153c:	62 17       	cp	r22, r18
    153e:	69 f4       	brne	.+26     	; 0x155a <ks0108DrawLine+0x60>
    1540:	48 17       	cp	r20, r24
    1542:	10 f4       	brcc	.+4      	; 0x1548 <ks0108DrawLine+0x4e>
    1544:	fd 2c       	mov	r15, r13
    1546:	d4 2e       	mov	r13, r20
    1548:	fd 18       	sub	r15, r13
    154a:	8d 2d       	mov	r24, r13
    154c:	6c 2d       	mov	r22, r12
    154e:	4f 2d       	mov	r20, r15
    1550:	20 e0       	ldi	r18, 0x00	; 0
    1552:	05 2d       	mov	r16, r5
    1554:	0e 94 c4 08 	call	0x1188	; 0x1188 <ks0108FillRect>
    1558:	d6 c0       	rjmp	.+428    	; 0x1706 <ks0108DrawLine+0x20c>
    155a:	62 2f       	mov	r22, r18
    155c:	70 e0       	ldi	r23, 0x00	; 0
    155e:	4c 2d       	mov	r20, r12
    1560:	50 e0       	ldi	r21, 0x00	; 0
    1562:	2f 2d       	mov	r18, r15
    1564:	30 e0       	ldi	r19, 0x00	; 0
    1566:	28 1b       	sub	r18, r24
    1568:	31 09       	sbc	r19, r1
    156a:	cb 01       	movw	r24, r22
    156c:	84 1b       	sub	r24, r20
    156e:	95 0b       	sbc	r25, r21
    1570:	82 17       	cp	r24, r18
    1572:	93 07       	cpc	r25, r19
    1574:	34 f4       	brge	.+12     	; 0x1582 <ks0108DrawLine+0x88>
    1576:	46 1b       	sub	r20, r22
    1578:	57 0b       	sbc	r21, r23
    157a:	42 17       	cp	r20, r18
    157c:	53 07       	cpc	r21, r19
    157e:	0c f4       	brge	.+2      	; 0x1582 <ks0108DrawLine+0x88>
    1580:	62 c0       	rjmp	.+196    	; 0x1646 <ks0108DrawLine+0x14c>
    1582:	fd 14       	cp	r15, r13
    1584:	30 f4       	brcc	.+12     	; 0x1592 <ks0108DrawLine+0x98>
    1586:	8f 2d       	mov	r24, r15
    1588:	fd 2c       	mov	r15, r13
    158a:	d8 2e       	mov	r13, r24
    158c:	8e 2d       	mov	r24, r14
    158e:	ec 2c       	mov	r14, r12
    1590:	c8 2e       	mov	r12, r24
    1592:	4f 2c       	mov	r4, r15
    1594:	4d 18       	sub	r4, r13
    1596:	ee 2d       	mov	r30, r14
    1598:	f0 e0       	ldi	r31, 0x00	; 0
    159a:	2c 2d       	mov	r18, r12
    159c:	30 e0       	ldi	r19, 0x00	; 0
    159e:	4f 01       	movw	r8, r30
    15a0:	82 1a       	sub	r8, r18
    15a2:	93 0a       	sbc	r9, r19
    15a4:	a4 2c       	mov	r10, r4
    15a6:	bb 24       	eor	r11, r11
    15a8:	88 ec       	ldi	r24, 0xC8	; 200
    15aa:	90 e0       	ldi	r25, 0x00	; 0
    15ac:	ac 01       	movw	r20, r24
    15ae:	84 9e       	mul	r8, r20
    15b0:	c0 01       	movw	r24, r0
    15b2:	85 9e       	mul	r8, r21
    15b4:	90 0d       	add	r25, r0
    15b6:	94 9e       	mul	r9, r20
    15b8:	90 0d       	add	r25, r0
    15ba:	11 24       	eor	r1, r1
    15bc:	b5 01       	movw	r22, r10
    15be:	0e 94 d0 0b 	call	0x17a0	; 0x17a0 <__divmodhi4>
    15c2:	eb 01       	movw	r28, r22
    15c4:	0c 2d       	mov	r16, r12
    15c6:	ff 24       	eor	r15, r15
    15c8:	39 01       	movw	r6, r18
    15ca:	6e 1a       	sub	r6, r30
    15cc:	7f 0a       	sbc	r7, r31
    15ce:	8f 2d       	mov	r24, r15
    15d0:	90 e0       	ldi	r25, 0x00	; 0
    15d2:	8c 9f       	mul	r24, r28
    15d4:	90 01       	movw	r18, r0
    15d6:	8d 9f       	mul	r24, r29
    15d8:	30 0d       	add	r19, r0
    15da:	9c 9f       	mul	r25, r28
    15dc:	30 0d       	add	r19, r0
    15de:	11 24       	eor	r1, r1
    15e0:	c9 01       	movw	r24, r18
    15e2:	68 ec       	ldi	r22, 0xC8	; 200
    15e4:	70 e0       	ldi	r23, 0x00	; 0
    15e6:	0e 94 d0 0b 	call	0x17a0	; 0x17a0 <__divmodhi4>
    15ea:	16 2f       	mov	r17, r22
    15ec:	1c 0d       	add	r17, r12
    15ee:	c9 01       	movw	r24, r18
    15f0:	68 ec       	ldi	r22, 0xC8	; 200
    15f2:	70 e0       	ldi	r23, 0x00	; 0
    15f4:	0e 94 d0 0b 	call	0x17a0	; 0x17a0 <__divmodhi4>
    15f8:	84 36       	cpi	r24, 0x64	; 100
    15fa:	91 05       	cpc	r25, r1
    15fc:	14 f0       	brlt	.+4      	; 0x1602 <ks0108DrawLine+0x108>
    15fe:	1f 5f       	subi	r17, 0xFF	; 255
    1600:	05 c0       	rjmp	.+10     	; 0x160c <ks0108DrawLine+0x112>
    1602:	5f ef       	ldi	r21, 0xFF	; 255
    1604:	8d 39       	cpi	r24, 0x9D	; 157
    1606:	95 07       	cpc	r25, r21
    1608:	0c f4       	brge	.+2      	; 0x160c <ks0108DrawLine+0x112>
    160a:	11 50       	subi	r17, 0x01	; 1
    160c:	4f 2d       	mov	r20, r15
    160e:	4d 0d       	add	r20, r13
    1610:	84 2f       	mov	r24, r20
    1612:	60 2f       	mov	r22, r16
    1614:	21 2f       	mov	r18, r17
    1616:	05 2d       	mov	r16, r5
    1618:	0e 94 7d 0a 	call	0x14fa	; 0x14fa <ks0108DrawLine>
    161c:	8a 14       	cp	r8, r10
    161e:	9b 04       	cpc	r9, r11
    1620:	2c f0       	brlt	.+10     	; 0x162c <ks0108DrawLine+0x132>
    1622:	ce 14       	cp	r12, r14
    1624:	18 f4       	brcc	.+6      	; 0x162c <ks0108DrawLine+0x132>
    1626:	01 2f       	mov	r16, r17
    1628:	0f 5f       	subi	r16, 0xFF	; 255
    162a:	09 c0       	rjmp	.+18     	; 0x163e <ks0108DrawLine+0x144>
    162c:	6a 14       	cp	r6, r10
    162e:	7b 04       	cpc	r7, r11
    1630:	2c f0       	brlt	.+10     	; 0x163c <ks0108DrawLine+0x142>
    1632:	ec 14       	cp	r14, r12
    1634:	18 f4       	brcc	.+6      	; 0x163c <ks0108DrawLine+0x142>
    1636:	01 2f       	mov	r16, r17
    1638:	01 50       	subi	r16, 0x01	; 1
    163a:	01 c0       	rjmp	.+2      	; 0x163e <ks0108DrawLine+0x144>
    163c:	01 2f       	mov	r16, r17
    163e:	f3 94       	inc	r15
    1640:	4f 14       	cp	r4, r15
    1642:	28 f6       	brcc	.-118    	; 0x15ce <ks0108DrawLine+0xd4>
    1644:	60 c0       	rjmp	.+192    	; 0x1706 <ks0108DrawLine+0x20c>
    1646:	ec 14       	cp	r14, r12
    1648:	28 f4       	brcc	.+10     	; 0x1654 <ks0108DrawLine+0x15a>
    164a:	8f 2d       	mov	r24, r15
    164c:	fd 2c       	mov	r15, r13
    164e:	d8 2e       	mov	r13, r24
    1650:	ec 2c       	mov	r14, r12
    1652:	c6 2e       	mov	r12, r22
    1654:	4e 2c       	mov	r4, r14
    1656:	4c 18       	sub	r4, r12
    1658:	ef 2d       	mov	r30, r15
    165a:	f0 e0       	ldi	r31, 0x00	; 0
    165c:	2d 2d       	mov	r18, r13
    165e:	30 e0       	ldi	r19, 0x00	; 0
    1660:	4f 01       	movw	r8, r30
    1662:	82 1a       	sub	r8, r18
    1664:	93 0a       	sbc	r9, r19
    1666:	a4 2c       	mov	r10, r4
    1668:	bb 24       	eor	r11, r11
    166a:	88 ec       	ldi	r24, 0xC8	; 200
    166c:	90 e0       	ldi	r25, 0x00	; 0
    166e:	ac 01       	movw	r20, r24
    1670:	84 9e       	mul	r8, r20
    1672:	c0 01       	movw	r24, r0
    1674:	85 9e       	mul	r8, r21
    1676:	90 0d       	add	r25, r0
    1678:	94 9e       	mul	r9, r20
    167a:	90 0d       	add	r25, r0
    167c:	11 24       	eor	r1, r1
    167e:	b5 01       	movw	r22, r10
    1680:	0e 94 d0 0b 	call	0x17a0	; 0x17a0 <__divmodhi4>
    1684:	eb 01       	movw	r28, r22
    1686:	4d 2d       	mov	r20, r13
    1688:	ee 24       	eor	r14, r14
    168a:	39 01       	movw	r6, r18
    168c:	6e 1a       	sub	r6, r30
    168e:	7f 0a       	sbc	r7, r31
    1690:	8e 2d       	mov	r24, r14
    1692:	90 e0       	ldi	r25, 0x00	; 0
    1694:	8c 9f       	mul	r24, r28
    1696:	90 01       	movw	r18, r0
    1698:	8d 9f       	mul	r24, r29
    169a:	30 0d       	add	r19, r0
    169c:	9c 9f       	mul	r25, r28
    169e:	30 0d       	add	r19, r0
    16a0:	11 24       	eor	r1, r1
    16a2:	c9 01       	movw	r24, r18
    16a4:	68 ec       	ldi	r22, 0xC8	; 200
    16a6:	70 e0       	ldi	r23, 0x00	; 0
    16a8:	0e 94 d0 0b 	call	0x17a0	; 0x17a0 <__divmodhi4>
    16ac:	16 2f       	mov	r17, r22
    16ae:	1d 0d       	add	r17, r13
    16b0:	c9 01       	movw	r24, r18
    16b2:	68 ec       	ldi	r22, 0xC8	; 200
    16b4:	70 e0       	ldi	r23, 0x00	; 0
    16b6:	0e 94 d0 0b 	call	0x17a0	; 0x17a0 <__divmodhi4>
    16ba:	84 36       	cpi	r24, 0x64	; 100
    16bc:	91 05       	cpc	r25, r1
    16be:	14 f0       	brlt	.+4      	; 0x16c4 <ks0108DrawLine+0x1ca>
    16c0:	1f 5f       	subi	r17, 0xFF	; 255
    16c2:	05 c0       	rjmp	.+10     	; 0x16ce <ks0108DrawLine+0x1d4>
    16c4:	5f ef       	ldi	r21, 0xFF	; 255
    16c6:	8d 39       	cpi	r24, 0x9D	; 157
    16c8:	95 07       	cpc	r25, r21
    16ca:	0c f4       	brge	.+2      	; 0x16ce <ks0108DrawLine+0x1d4>
    16cc:	11 50       	subi	r17, 0x01	; 1
    16ce:	2e 2d       	mov	r18, r14
    16d0:	2c 0d       	add	r18, r12
    16d2:	84 2f       	mov	r24, r20
    16d4:	62 2f       	mov	r22, r18
    16d6:	41 2f       	mov	r20, r17
    16d8:	05 2d       	mov	r16, r5
    16da:	0e 94 7d 0a 	call	0x14fa	; 0x14fa <ks0108DrawLine>
    16de:	8a 14       	cp	r8, r10
    16e0:	9b 04       	cpc	r9, r11
    16e2:	2c f0       	brlt	.+10     	; 0x16ee <ks0108DrawLine+0x1f4>
    16e4:	df 14       	cp	r13, r15
    16e6:	18 f4       	brcc	.+6      	; 0x16ee <ks0108DrawLine+0x1f4>
    16e8:	41 2f       	mov	r20, r17
    16ea:	4f 5f       	subi	r20, 0xFF	; 255
    16ec:	09 c0       	rjmp	.+18     	; 0x1700 <ks0108DrawLine+0x206>
    16ee:	6a 14       	cp	r6, r10
    16f0:	7b 04       	cpc	r7, r11
    16f2:	2c f0       	brlt	.+10     	; 0x16fe <ks0108DrawLine+0x204>
    16f4:	fd 14       	cp	r15, r13
    16f6:	18 f4       	brcc	.+6      	; 0x16fe <ks0108DrawLine+0x204>
    16f8:	41 2f       	mov	r20, r17
    16fa:	41 50       	subi	r20, 0x01	; 1
    16fc:	01 c0       	rjmp	.+2      	; 0x1700 <ks0108DrawLine+0x206>
    16fe:	41 2f       	mov	r20, r17
    1700:	e3 94       	inc	r14
    1702:	4e 14       	cp	r4, r14
    1704:	28 f6       	brcc	.-118    	; 0x1690 <ks0108DrawLine+0x196>
    1706:	df 91       	pop	r29
    1708:	cf 91       	pop	r28
    170a:	1f 91       	pop	r17
    170c:	0f 91       	pop	r16
    170e:	ff 90       	pop	r15
    1710:	ef 90       	pop	r14
    1712:	df 90       	pop	r13
    1714:	cf 90       	pop	r12
    1716:	bf 90       	pop	r11
    1718:	af 90       	pop	r10
    171a:	9f 90       	pop	r9
    171c:	8f 90       	pop	r8
    171e:	7f 90       	pop	r7
    1720:	6f 90       	pop	r6
    1722:	5f 90       	pop	r5
    1724:	4f 90       	pop	r4
    1726:	08 95       	ret

00001728 <Welcome_Screen>:
    1728:	cf 92       	push	r12
    172a:	df 92       	push	r13
    172c:	ef 92       	push	r14
    172e:	0f 93       	push	r16
    1730:	81 e3       	ldi	r24, 0x31	; 49
    1732:	c8 2e       	mov	r12, r24
    1734:	85 e0       	ldi	r24, 0x05	; 5
    1736:	d8 2e       	mov	r13, r24
    1738:	84 e5       	ldi	r24, 0x54	; 84
    173a:	90 e0       	ldi	r25, 0x00	; 0
    173c:	b6 01       	movw	r22, r12
    173e:	4f ef       	ldi	r20, 0xFF	; 255
    1740:	0e 94 34 05 	call	0xa68	; 0xa68 <ks0108SelectFont>
    1744:	8f e0       	ldi	r24, 0x0F	; 15
    1746:	6a e0       	ldi	r22, 0x0A	; 10
    1748:	0e 94 d9 05 	call	0xbb2	; 0xbb2 <ks0108GotoXY>
    174c:	8e e2       	ldi	r24, 0x2E	; 46
    174e:	9a e0       	ldi	r25, 0x0A	; 10
    1750:	0e 94 af 07 	call	0xf5e	; 0xf5e <ks0108Puts_P>
    1754:	85 e0       	ldi	r24, 0x05	; 5
    1756:	65 e0       	ldi	r22, 0x05	; 5
    1758:	45 e7       	ldi	r20, 0x75	; 117
    175a:	24 e1       	ldi	r18, 0x14	; 20
    175c:	08 e0       	ldi	r16, 0x08	; 8
    175e:	ee 24       	eor	r14, r14
    1760:	ea 94       	dec	r14
    1762:	0e 94 7a 09 	call	0x12f4	; 0x12f4 <ks0108DrawRoundRect>
    1766:	88 e8       	ldi	r24, 0x88	; 136
    1768:	95 e0       	ldi	r25, 0x05	; 5
    176a:	b6 01       	movw	r22, r12
    176c:	4f ef       	ldi	r20, 0xFF	; 255
    176e:	0e 94 34 05 	call	0xa68	; 0xa68 <ks0108SelectFont>
    1772:	85 e0       	ldi	r24, 0x05	; 5
    1774:	6e e1       	ldi	r22, 0x1E	; 30
    1776:	0e 94 d9 05 	call	0xbb2	; 0xbb2 <ks0108GotoXY>
    177a:	86 ee       	ldi	r24, 0xE6	; 230
    177c:	99 e0       	ldi	r25, 0x09	; 9
    177e:	0e 94 af 07 	call	0xf5e	; 0xf5e <ks0108Puts_P>
    1782:	0f 91       	pop	r16
    1784:	ef 90       	pop	r14
    1786:	df 90       	pop	r13
    1788:	cf 90       	pop	r12
    178a:	08 95       	ret

0000178c <main>:
    178c:	80 e0       	ldi	r24, 0x00	; 0
    178e:	0e 94 52 09 	call	0x12a4	; 0x12a4 <ks0108Init>
    1792:	80 e2       	ldi	r24, 0x20	; 32
    1794:	9e e4       	ldi	r25, 0x4E	; 78
    1796:	01 97       	sbiw	r24, 0x01	; 1
    1798:	f1 f7       	brne	.-4      	; 0x1796 <main+0xa>
    179a:	0e 94 94 0b 	call	0x1728	; 0x1728 <Welcome_Screen>
    179e:	ff cf       	rjmp	.-2      	; 0x179e <main+0x12>

000017a0 <__divmodhi4>:
    17a0:	97 fb       	bst	r25, 7
    17a2:	09 2e       	mov	r0, r25
    17a4:	07 26       	eor	r0, r23
    17a6:	0a d0       	rcall	.+20     	; 0x17bc <__divmodhi4_neg1>
    17a8:	77 fd       	sbrc	r23, 7
    17aa:	04 d0       	rcall	.+8      	; 0x17b4 <__divmodhi4_neg2>
    17ac:	0c d0       	rcall	.+24     	; 0x17c6 <__udivmodhi4>
    17ae:	06 d0       	rcall	.+12     	; 0x17bc <__divmodhi4_neg1>
    17b0:	00 20       	and	r0, r0
    17b2:	1a f4       	brpl	.+6      	; 0x17ba <__divmodhi4_exit>

000017b4 <__divmodhi4_neg2>:
    17b4:	70 95       	com	r23
    17b6:	61 95       	neg	r22
    17b8:	7f 4f       	sbci	r23, 0xFF	; 255

000017ba <__divmodhi4_exit>:
    17ba:	08 95       	ret

000017bc <__divmodhi4_neg1>:
    17bc:	f6 f7       	brtc	.-4      	; 0x17ba <__divmodhi4_exit>
    17be:	90 95       	com	r25
    17c0:	81 95       	neg	r24
    17c2:	9f 4f       	sbci	r25, 0xFF	; 255
    17c4:	08 95       	ret

000017c6 <__udivmodhi4>:
    17c6:	aa 1b       	sub	r26, r26
    17c8:	bb 1b       	sub	r27, r27
    17ca:	51 e1       	ldi	r21, 0x11	; 17
    17cc:	07 c0       	rjmp	.+14     	; 0x17dc <__udivmodhi4_ep>

000017ce <__udivmodhi4_loop>:
    17ce:	aa 1f       	adc	r26, r26
    17d0:	bb 1f       	adc	r27, r27
    17d2:	a6 17       	cp	r26, r22
    17d4:	b7 07       	cpc	r27, r23
    17d6:	10 f0       	brcs	.+4      	; 0x17dc <__udivmodhi4_ep>
    17d8:	a6 1b       	sub	r26, r22
    17da:	b7 0b       	sbc	r27, r23

000017dc <__udivmodhi4_ep>:
    17dc:	88 1f       	adc	r24, r24
    17de:	99 1f       	adc	r25, r25
    17e0:	5a 95       	dec	r21
    17e2:	a9 f7       	brne	.-22     	; 0x17ce <__udivmodhi4_loop>
    17e4:	80 95       	com	r24
    17e6:	90 95       	com	r25
    17e8:	bc 01       	movw	r22, r24
    17ea:	cd 01       	movw	r24, r26
    17ec:	08 95       	ret

000017ee <_exit>:
    17ee:	f8 94       	cli

000017f0 <__stop_program>:
    17f0:	ff cf       	rjmp	.-2      	; 0x17f0 <__stop_program>
